(dp1
S'files'
p2
(dp3
S'_usr_local_lib_python2_7_dist-packages_cryptography_hazmat_bindings_openssl_rsa'
p4
(dp5
S'index'
p6
(dp7
S'html_filename'
p8
S'_usr_local_lib_python2_7_dist-packages_cryptography_hazmat_bindings_openssl_rsa.html'
p9
sS'name'
p10
S'/usr/local/lib/python2.7/dist-packages/cryptography/hazmat/bindings/openssl/rsa'
p11
sS'nums'
p12
ccopy_reg
_reconstructor
p13
(ccoverage.results
Numbers
p14
c__builtin__
object
p15
NtRp16
(dp17
S'n_files'
p18
I1
sS'n_branches'
p19
I0
sS'n_statements'
p20
I7
sS'n_excluded'
p21
I0
sS'n_partial_branches'
p22
I0
sS'n_missing'
p23
I0
sS'n_missing_branches'
p24
I0
sbssS'hash'
p25
S'r\x1e\xd2\xf5\xdac\xbf\x1a\xcbl\xb7O\xf1\x05\x18~'
p26
ssS'_usr_local_lib_python2_7_dist-packages_riak_transports_pbc_stream'
p27
(dp28
g6
(dp29
g8
S'_usr_local_lib_python2_7_dist-packages_riak_transports_pbc_stream.html'
p30
sg10
S'/usr/local/lib/python2.7/dist-packages/riak/transports/pbc/stream'
p31
sg12
g13
(g14
g15
NtRp32
(dp33
g18
I1
sg19
I0
sg20
I84
sg21
I0
sg22
I0
sg23
I53
sg24
I0
sbssg25
S'M\xa8<\xe8\x80\x0fM\x8b\x10f\xa5\xd3\xa9\xc9\xd5+'
p34
ssS'_usr_local_lib_python2_7_dist-packages_requests_packages_urllib3_contrib_pyopenssl'
p35
(dp36
g6
(dp37
g8
S'_usr_local_lib_python2_7_dist-packages_requests_packages_urllib3_contrib_pyopenssl.html'
p38
sg10
S'/usr/local/lib/python2.7/dist-packages/requests/packages/urllib3/contrib/pyopenssl'
p39
sg12
g13
(g14
g15
NtRp40
(dp41
g18
I1
sg19
I0
sg20
I146
sg21
I0
sg22
I0
sg23
I143
sg24
I0
sbssg25
S'\xdb\xb8\xf3\x13 \x94\xcbW~{\x9c\xc6P\xbfY;'
p42
ssS'_usr_local_lib_python2_7_dist-packages_requests_sessions'
p43
(dp44
g6
(dp45
g8
S'_usr_local_lib_python2_7_dist-packages_requests_sessions.html'
p46
sg10
S'/usr/local/lib/python2.7/dist-packages/requests/sessions'
p47
sg12
g13
(g14
g15
NtRp48
(dp49
g18
I1
sg19
I0
sg20
I262
sg21
I0
sg22
I0
sg23
I198
sg24
I0
sbssg25
S'\x01U\x14(\x07\xafk\t*\xdd\x86\xa5\x91\x83\xd2)'
p50
ssS'_usr_local_lib_python2_7_dist-packages_cryptography_hazmat_bindings_openssl_x509name'
p51
(dp52
g6
(dp53
g8
S'_usr_local_lib_python2_7_dist-packages_cryptography_hazmat_bindings_openssl_x509name.html'
p54
sg10
S'/usr/local/lib/python2.7/dist-packages/cryptography/hazmat/bindings/openssl/x509name'
p55
sg12
g13
(g14
g15
NtRp56
(dp57
g18
I1
sg19
I0
sg20
I7
sg21
I0
sg22
I0
sg23
I0
sg24
I0
sbssg25
S'\xd5L\xbal\xaf\xad-Lo\xea\x96\x9f\xe7\x0e\x98\xff'
p58
ssS'_usr_local_lib_python2_7_dist-packages_OpenSSL___init__'
p59
(dp60
g6
(dp61
g8
S'_usr_local_lib_python2_7_dist-packages_OpenSSL___init__.html'
p62
sg10
S'/usr/local/lib/python2.7/dist-packages/OpenSSL/__init__'
p63
sg12
g13
(g14
g15
NtRp64
(dp65
g18
I1
sg19
I0
sg20
I4
sg21
I0
sg22
I0
sg23
I0
sg24
I0
sbssg25
S'L\x14v\xf0J\xadx\xc5\t*Bq\xf5)\xcc\xe6'
p66
ssS'_usr_local_lib_python2_7_dist-packages_cryptography_hazmat_bindings_openssl_hmac'
p67
(dp68
g6
(dp69
g8
S'_usr_local_lib_python2_7_dist-packages_cryptography_hazmat_bindings_openssl_hmac.html'
p70
sg10
S'/usr/local/lib/python2.7/dist-packages/cryptography/hazmat/bindings/openssl/hmac'
p71
sg12
g13
(g14
g15
NtRp72
(dp73
g18
I1
sg19
I0
sg20
I7
sg21
I0
sg22
I0
sg23
I0
sg24
I0
sbssg25
S'-\x8e\xa2\x0f{\x8a\xfe\xf9\x87RH\x0b\x05x\xc0\xb6'
p74
ssS'_usr_local_lib_python2_7_dist-packages_urllib3_util_timeout'
p75
(dp76
g6
(dp77
g8
S'_usr_local_lib_python2_7_dist-packages_urllib3_util_timeout.html'
p78
sg10
S'/usr/local/lib/python2.7/dist-packages/urllib3/util/timeout'
p79
sg12
g13
(g14
g15
NtRp80
(dp81
g18
I1
sg19
I0
sg20
I57
sg21
I0
sg22
I0
sg23
I41
sg24
I0
sbssg25
S'\xa1}Vqd\x11\xe6\x8b\xe3\xae\xe7X$\xa2\xd0\xac'
p82
ssS'_usr_local_lib_python2_7_dist-packages_pytz___init__'
p83
(dp84
g6
(dp85
g8
S'_usr_local_lib_python2_7_dist-packages_pytz___init__.html'
p86
sg10
S'/usr/local/lib/python2.7/dist-packages/pytz/__init__'
p87
sg12
g13
(g14
g15
NtRp88
(dp89
g18
I1
sg19
I0
sg20
I181
sg21
I0
sg22
I0
sg23
I84
sg24
I0
sbssg25
S'\x83\x80p7%9\xe1\x12\x11\xe0*\x99\xd1\xc9\xa6\xb9'
p90
ssS'_usr_local_lib_python2_7_dist-packages_riak_client_multiget'
p91
(dp92
g6
(dp93
g8
S'_usr_local_lib_python2_7_dist-packages_riak_client_multiget.html'
p94
sg10
S'/usr/local/lib/python2.7/dist-packages/riak/client/multiget'
p95
sg12
g13
(g14
g15
NtRp96
(dp97
g18
I1
sg19
I0
sg20
I106
sg21
I0
sg22
I0
sg23
I77
sg24
I0
sbssg25
S'L7}N\xe5\xaf\x93\n\x83\xcb\x14\xb5\x1e\n-Q'
p98
ssS'_usr_local_lib_python2_7_dist-packages_riak___init__'
p99
(dp100
g6
(dp101
g8
S'_usr_local_lib_python2_7_dist-packages_riak___init__.html'
p102
sg10
S'/usr/local/lib/python2.7/dist-packages/riak/__init__'
p103
sg12
g13
(g14
g15
NtRp104
(dp105
g18
I1
sg19
I0
sg20
I18
sg21
I0
sg22
I0
sg23
I3
sg24
I0
sbssg25
S'5k@\xb5\x0b\xf32\xc3\x81\x0e>!\x91\xe4E6'
p106
ssS'_usr_local_lib_python2_7_dist-packages_elasticsearch_connection_memcached'
p107
(dp108
g6
(dp109
g8
S'_usr_local_lib_python2_7_dist-packages_elasticsearch_connection_memcached.html'
p110
sg10
S'/usr/local/lib/python2.7/dist-packages/elasticsearch/connection/memcached'
p111
sg12
g13
(g14
g15
NtRp112
(dp113
g18
I1
sg19
I0
sg20
I51
sg21
I0
sg22
I0
sg23
I38
sg24
I0
sbssg25
S'\xac\xea\x8c\x08\x0f\x86\xc9p\xd6\xa0\x9c\x16\x84o\x18\x1a'
p114
ssS'data_api_v1'
p115
(dp116
g6
(dp117
g8
S'data_api_v1.html'
p118
sg10
S'data_api/v1'
p119
sg12
g13
(g14
g15
NtRp120
(dp121
g18
I1
sg19
I0
sg20
I56
sg21
I0
sg22
I0
sg23
I47
sg24
I0
sbssg25
S'd\xabx\x1bL=\x06\xfa\t\x84\x84\xebw\xdcO\xdd'
p122
ssS'data_api_v2'
p123
(dp124
g6
(dp125
g8
S'data_api_v2.html'
p126
sg10
S'data_api/v2'
p127
sg12
g13
(g14
g15
NtRp128
(dp129
g18
I1
sg19
I0
sg20
I59
sg21
I0
sg22
I0
sg23
I49
sg24
I0
sbssg25
S"\x95\x99\x94;\x0b\x9e\xee\x03\x9a\xb2\x8c\\w\x1b'{"
p130
ssS'_usr_local_lib_python2_7_dist-packages_dateutil_relativedelta'
p131
(dp132
g6
(dp133
g8
S'_usr_local_lib_python2_7_dist-packages_dateutil_relativedelta.html'
p134
sg10
S'/usr/local/lib/python2.7/dist-packages/dateutil/relativedelta'
p135
sg12
g13
(g14
g15
NtRp136
(dp137
g18
I1
sg19
I0
sg20
I223
sg21
I0
sg22
I0
sg23
I192
sg24
I0
sbssg25
S'\x1f?&\xfa\x91t\xe1\xea\xda\xc6\x94\xbc\xc2\xd1b4'
p138
ssS'_usr_local_lib_python2_7_dist-packages_urllib3_contrib_pyopenssl'
p139
(dp140
g6
(dp141
g8
S'_usr_local_lib_python2_7_dist-packages_urllib3_contrib_pyopenssl.html'
p142
sg10
S'/usr/local/lib/python2.7/dist-packages/urllib3/contrib/pyopenssl'
p143
sg12
g13
(g14
g15
NtRp144
(dp145
g18
I1
sg19
I0
sg20
I146
sg21
I0
sg22
I0
sg23
I143
sg24
I0
sbssg25
S'\xdb\xb8\xf3\x13 \x94\xcbW~{\x9c\xc6P\xbfY;'
p146
ssS'_usr_local_lib_python2_7_dist-packages_nose_plugins_xunit'
p147
(dp148
g6
(dp149
g8
S'_usr_local_lib_python2_7_dist-packages_nose_plugins_xunit.html'
p150
sg10
S'/usr/local/lib/python2.7/dist-packages/nose/plugins/xunit'
p151
sg12
g13
(g14
g15
NtRp152
(dp153
g18
I1
sg19
I0
sg20
I164
sg21
I0
sg22
I0
sg23
I161
sg24
I0
sbssg25
S'\xce\xf94x@\xd4\xceL\x07\xe8\x04vNc\xc1\xe0'
p154
ssS'_usr_local_lib_python2_7_dist-packages_OpenSSL_rand'
p155
(dp156
g6
(dp157
g8
S'_usr_local_lib_python2_7_dist-packages_OpenSSL_rand.html'
p158
sg10
S'/usr/local/lib/python2.7/dist-packages/OpenSSL/rand'
p159
sg12
g13
(g14
g15
NtRp160
(dp161
g18
I1
sg19
I0
sg20
I56
sg21
I0
sg22
I0
sg23
I37
sg24
I0
sbssg25
S'\x17\xe7\x08\r\xaa\xed\xac-K-\x0b9O\x8a\x01\xde'
p162
ssS'_usr_local_lib_python2_7_dist-packages_requests_certs'
p163
(dp164
g6
(dp165
g8
S'_usr_local_lib_python2_7_dist-packages_requests_certs.html'
p166
sg10
S'/usr/local/lib/python2.7/dist-packages/requests/certs'
p167
sg12
g13
(g14
g15
NtRp168
(dp169
g18
I1
sg19
I0
sg20
I9
sg21
I0
sg22
I0
sg23
I1
sg24
I0
sbssg25
S'\x86\xf6\xe8\x99\x1b\x91\xb9\x10O1ay\xad\xd7\x1a\x8f'
p170
ssS'_usr_local_lib_python2_7_dist-packages_nose_plugins_testid'
p171
(dp172
g6
(dp173
g8
S'_usr_local_lib_python2_7_dist-packages_nose_plugins_testid.html'
p174
sg10
S'/usr/local/lib/python2.7/dist-packages/nose/plugins/testid'
p175
sg12
g13
(g14
g15
NtRp176
(dp177
g18
I1
sg19
I0
sg20
I135
sg21
I0
sg22
I0
sg23
I123
sg24
I0
sbssg25
S'y\x07\xb5\x0e{C3\x12A\x94V\xb8\x196\\!'
p178
ssS'postgres_backend_db'
p179
(dp180
g6
(dp181
g8
S'postgres_backend_db.html'
p182
sg10
S'postgres_backend/db'
p183
sg12
g13
(g14
g15
NtRp184
(dp185
g18
I1
sg19
I0
sg20
I240
sg21
I0
sg22
I0
sg23
I176
sg24
I0
sbssg25
S'\x0bH\xcc\x17\xb6q\xf8\x1b\x07Y\xc5M\xe0\xbe\x7f*'
p186
ssS'load_corrections'
p187
(dp188
g6
(dp189
g8
S'load_corrections.html'
p190
sg10
g187
sg12
g13
(g14
g15
NtRp191
(dp192
g18
I1
sg19
I0
sg20
I15
sg21
I0
sg22
I0
sg23
I13
sg24
I0
sbssg25
S'\xa9\xaf\xe4~\x16L1~\xf6h\xc4\x920\xd8\xf66'
p193
ssS'_usr_local_lib_python2_7_dist-packages_jinja2_bccache'
p194
(dp195
g6
(dp196
g8
S'_usr_local_lib_python2_7_dist-packages_jinja2_bccache.html'
p197
sg10
S'/usr/local/lib/python2.7/dist-packages/jinja2/bccache'
p198
sg12
g13
(g14
g15
NtRp199
(dp200
g18
I1
sg19
I0
sg20
I147
sg21
I0
sg22
I0
sg23
I104
sg24
I0
sbssg25
S'r\xee\xabK\x8f\x01\xb0\xfa\xa2rl\xe3)n]\xc4'
p201
ssS'_usr_local_lib_python2_7_dist-packages_OpenSSL__util'
p202
(dp203
g6
(dp204
g8
S'_usr_local_lib_python2_7_dist-packages_OpenSSL__util.html'
p205
sg10
S'/usr/local/lib/python2.7/dist-packages/OpenSSL/_util'
p206
sg12
g13
(g14
g15
NtRp207
(dp208
g18
I1
sg19
I0
sg20
I29
sg21
I0
sg22
I0
sg23
I20
sg24
I0
sbssg25
S'_#I5\xf8\xe6\xea\x122\xa1\x93\x17ORa\xdb'
p209
ssS'_usr_local_lib_python2_7_dist-packages_cryptography_hazmat_bindings_openssl_cmac'
p210
(dp211
g6
(dp212
g8
S'_usr_local_lib_python2_7_dist-packages_cryptography_hazmat_bindings_openssl_cmac.html'
p213
sg10
S'/usr/local/lib/python2.7/dist-packages/cryptography/hazmat/bindings/openssl/cmac'
p214
sg12
g13
(g14
g15
NtRp215
(dp216
g18
I1
sg19
I0
sg20
I7
sg21
I0
sg22
I0
sg23
I0
sg24
I0
sbssg25
S',\x8f+O[\x16\xd7\xf1\xda\r\xc9\x81\x0e\x98i\x9b'
p217
ssS'_usr_local_lib_python2_7_dist-packages_requests_packages_urllib3_packages_ordered_dict'
p218
(dp219
g6
(dp220
g8
S'_usr_local_lib_python2_7_dist-packages_requests_packages_urllib3_packages_ordered_dict.html'
p221
sg10
S'/usr/local/lib/python2.7/dist-packages/requests/packages/urllib3/packages/ordered_dict'
p222
sg12
g13
(g14
g15
NtRp223
(dp224
g18
I1
sg19
I0
sg20
I155
sg21
I0
sg22
I0
sg23
I95
sg24
I0
sbssg25
S'f\x96\xf40\x04|\x83\xd8\xcd\xe8\xd5\x96\x7f\x80\xfd\x84'
p225
ssS'_usr_local_lib_python2_7_dist-packages_urllib3_util_connection'
p226
(dp227
g6
(dp228
g8
S'_usr_local_lib_python2_7_dist-packages_urllib3_util_connection.html'
p229
sg10
S'/usr/local/lib/python2.7/dist-packages/urllib3/util/connection'
p230
sg12
g13
(g14
g15
NtRp231
(dp232
g18
I1
sg19
I0
sg20
I55
sg21
I0
sg22
I0
sg23
I49
sg24
I0
sbssg25
S'\xc5\x83\xec\xd0c(\xedO\x99#u\x13\x02\x95U\x8d'
p233
ssS'_usr_local_lib_python2_7_dist-packages_jinja2_lexer'
p234
(dp235
g6
(dp236
g8
S'_usr_local_lib_python2_7_dist-packages_jinja2_lexer.html'
p237
sg10
S'/usr/local/lib/python2.7/dist-packages/jinja2/lexer'
p238
sg12
g13
(g14
g15
NtRp239
(dp240
g18
I1
sg19
I0
sg20
I346
sg21
I0
sg22
I0
sg23
I231
sg24
I0
sbssg25
S'\x14/\x1c\x1a\xac,:\xa3t*\ry\x89\xdfF\xa0'
p241
ssS'_usr_local_lib_python2_7_dist-packages_dateutil_tzwin'
p242
(dp243
g6
(dp244
g8
S'_usr_local_lib_python2_7_dist-packages_dateutil_tzwin.html'
p245
sg10
S'/usr/local/lib/python2.7/dist-packages/dateutil/tzwin'
p246
sg12
g13
(g14
g15
NtRp247
(dp248
g18
I1
sg19
I0
sg20
I103
sg21
I0
sg22
I0
sg23
I100
sg24
I0
sbssg25
S'\x88V\x06^\x9e\x89@\xfcgfX\xe7@h\xb0w'
p249
ssS'_usr_local_lib_python2_7_dist-packages_psycopg2_tz'
p250
(dp251
g6
(dp252
g8
S'_usr_local_lib_python2_7_dist-packages_psycopg2_tz.html'
p253
sg10
S'/usr/local/lib/python2.7/dist-packages/psycopg2/tz'
p254
sg12
g13
(g14
g15
NtRp255
(dp256
g18
I1
sg19
I0
sg20
I61
sg21
I0
sg22
I0
sg23
I37
sg24
I0
sbssg25
S')L)\xac\xa7\xd2l\x88\xc3x\x9fr0Q\xfa\xc9'
p257
ssS'_usr_local_lib_python2_7_dist-packages_dateutil___init__'
p258
(dp259
g6
(dp260
g8
S'_usr_local_lib_python2_7_dist-packages_dateutil___init__.html'
p261
sg10
S'/usr/local/lib/python2.7/dist-packages/dateutil/__init__'
p262
sg12
g13
(g14
g15
NtRp263
(dp264
g18
I1
sg19
I0
sg20
I1
sg21
I0
sg22
I0
sg23
I0
sg24
I0
sbssg25
S'Q"E\x1c;5j\x96s\xac\xe1 \x94="_'
p265
ssS'_usr_local_lib_python2_7_dist-packages_cryptography_hazmat_bindings_openssl_x509v3'
p266
(dp267
g6
(dp268
g8
S'_usr_local_lib_python2_7_dist-packages_cryptography_hazmat_bindings_openssl_x509v3.html'
p269
sg10
S'/usr/local/lib/python2.7/dist-packages/cryptography/hazmat/bindings/openssl/x509v3'
p270
sg12
g13
(g14
g15
NtRp271
(dp272
g18
I1
sg19
I0
sg20
I7
sg21
I0
sg22
I0
sg23
I0
sg24
I0
sbssg25
S'\xc2\xa5k\x1e\xfe$\xc0\xda\x19*\x84\x08Cj\x04\x7f'
p273
ssS'_usr_local_lib_python2_7_dist-packages_nose_plugins_errorclass'
p274
(dp275
g6
(dp276
g8
S'_usr_local_lib_python2_7_dist-packages_nose_plugins_errorclass.html'
p277
sg10
S'/usr/local/lib/python2.7/dist-packages/nose/plugins/errorclass'
p278
sg12
g13
(g14
g15
NtRp279
(dp280
g18
I1
sg19
I0
sg20
I65
sg21
I0
sg22
I0
sg23
I55
sg24
I0
sbssg25
S'\xa6\xc35\x0b\xbaBz\x07[(\xd1{\xf7W\xeeH'
p281
ssS'_usr_local_lib_python2_7_dist-packages_nose_plugins_capture'
p282
(dp283
g6
(dp284
g8
S'_usr_local_lib_python2_7_dist-packages_nose_plugins_capture.html'
p285
sg10
S'/usr/local/lib/python2.7/dist-packages/nose/plugins/capture'
p286
sg12
g13
(g14
g15
NtRp287
(dp288
g18
I1
sg19
I0
sg20
I56
sg21
I0
sg22
I0
sg23
I41
sg24
I0
sbssg25
S'F\x03e6\xf4\xa5Z_\x03u\x9b\x8a\xb5j\xf6H'
p289
ssS'_usr_local_lib_python2_7_dist-packages_requests_packages_urllib3_util_ssl_'
p290
(dp291
g6
(dp292
g8
S'_usr_local_lib_python2_7_dist-packages_requests_packages_urllib3_util_ssl_.html'
p293
sg10
S'/usr/local/lib/python2.7/dist-packages/requests/packages/urllib3/util/ssl_'
p294
sg12
g13
(g14
g15
NtRp295
(dp296
g18
I1
sg19
I0
sg20
I114
sg21
I0
sg22
I0
sg23
I77
sg24
I0
sbssg25
S'4a\xee\xf9\xec\xcb=\x02\x7f\x8f\xdbU`keq'
p297
ssS'tests_test_helpers_conversions'
p298
(dp299
g6
(dp300
g8
S'tests_test_helpers_conversions.html'
p301
sg10
S'tests/test_helpers_conversions'
p302
sg12
g13
(g14
g15
NtRp303
(dp304
g18
I1
sg19
I0
sg20
I131
sg21
I0
sg22
I0
sg23
I2
sg24
I0
sbssg25
S"\xd6\xa9\x1f\xa7\xcfe\xb2'_jEX*\xcb\xa4\x91"
p305
ssS'_usr_local_lib_python2_7_dist-packages_google_protobuf_message'
p306
(dp307
g6
(dp308
g8
S'_usr_local_lib_python2_7_dist-packages_google_protobuf_message.html'
p309
sg10
S'/usr/local/lib/python2.7/dist-packages/google/protobuf/message'
p310
sg12
g13
(g14
g15
NtRp311
(dp312
g18
I1
sg19
I0
sg20
I63
sg21
I0
sg22
I0
sg23
I29
sg24
I0
sbssg25
S'\x0e\x86\x97\xc8\\\xc9\x18\xcb\\D+\xa4\x9c\xedY\xc5'
p313
ssS'_usr_local_lib_python2_7_dist-packages_flask_templating'
p314
(dp315
g6
(dp316
g8
S'_usr_local_lib_python2_7_dist-packages_flask_templating.html'
p317
sg10
S'/usr/local/lib/python2.7/dist-packages/flask/templating'
p318
sg12
g13
(g14
g15
NtRp319
(dp320
g18
I1
sg19
I0
sg20
I78
sg21
I0
sg22
I0
sg23
I60
sg24
I0
sbssg25
S'\x7f\xdd\xd9\xef\xb7\xe8\xb2&\x83\xd3\x16\xc7&\xe7\x13\xb4'
p321
ssS'_usr_local_lib_python2_7_dist-packages_flask_blueprints'
p322
(dp323
g6
(dp324
g8
S'_usr_local_lib_python2_7_dist-packages_flask_blueprints.html'
p325
sg10
S'/usr/local/lib/python2.7/dist-packages/flask/blueprints'
p326
sg12
g13
(g14
g15
NtRp327
(dp328
g18
I1
sg19
I0
sg20
I156
sg21
I0
sg22
I0
sg23
I71
sg24
I0
sbssg25
S'|8\xf2\xea^\xa9Ha\xd5\x17\xe5C\xed\xb4(\x12'
p329
ssS'_usr_local_lib_python2_7_dist-packages_cryptography_hazmat_bindings_openssl_pkcs7'
p330
(dp331
g6
(dp332
g8
S'_usr_local_lib_python2_7_dist-packages_cryptography_hazmat_bindings_openssl_pkcs7.html'
p333
sg10
S'/usr/local/lib/python2.7/dist-packages/cryptography/hazmat/bindings/openssl/pkcs7'
p334
sg12
g13
(g14
g15
NtRp335
(dp336
g18
I1
sg19
I0
sg20
I7
sg21
I0
sg22
I0
sg23
I0
sg24
I0
sbssg25
S'\x80\xae\x8ahFj\xc3\xb5\x87\xc9}\x92m\xc2\xcb;'
p337
ssS'_usr_local_lib_python2_7_dist-packages_flask___init__'
p338
(dp339
g6
(dp340
g8
S'_usr_local_lib_python2_7_dist-packages_flask___init__.html'
p341
sg10
S'/usr/local/lib/python2.7/dist-packages/flask/__init__'
p342
sg12
g13
(g14
g15
NtRp343
(dp344
g18
I1
sg19
I0
sg20
I18
sg21
I0
sg22
I0
sg23
I0
sg24
I0
sbssg25
S'\xbap\xbb\x0bT{\x1b\xee\xb3R\xfde\x14\xac>O'
p345
ssS'_usr_local_lib_python2_7_dist-packages_dateutil_parser'
p346
(dp347
g6
(dp348
g8
S'_usr_local_lib_python2_7_dist-packages_dateutil_parser.html'
p349
sg10
S'/usr/local/lib/python2.7/dist-packages/dateutil/parser'
p350
sg12
g13
(g14
g15
NtRp351
(dp352
g18
I1
sg19
I0
sg20
I639
sg21
I0
sg22
I0
sg23
I356
sg24
I0
sbssg25
S'\xc9\x83\xcb\x1cV \xbe\xee#`^\x1b\x8b\xb7q\x1b'
p353
ssS'_usr_local_lib_python2_7_dist-packages_riak_transports_http_codec'
p354
(dp355
g6
(dp356
g8
S'_usr_local_lib_python2_7_dist-packages_riak_transports_http_codec.html'
p357
sg10
S'/usr/local/lib/python2.7/dist-packages/riak/transports/http/codec'
p358
sg12
g13
(g14
g15
NtRp359
(dp360
g18
I1
sg19
I0
sg20
I189
sg21
I0
sg22
I0
sg23
I159
sg24
I0
sbssg25
S'\x14\xad\x8e\xc6\xee\xef?\xb3i\xbf0\x85\xab\xf4\xfco'
p361
ssS'_usr_local_lib_python2_7_dist-packages_google_protobuf_internal_wire_format'
p362
(dp363
g6
(dp364
g8
S'_usr_local_lib_python2_7_dist-packages_google_protobuf_internal_wire_format.html'
p365
sg10
S'/usr/local/lib/python2.7/dist-packages/google/protobuf/internal/wire_format'
p366
sg12
g13
(g14
g15
NtRp367
(dp368
g18
I1
sg19
I0
sg20
I105
sg21
I0
sg22
I0
sg23
I48
sg24
I0
sbssg25
S':\x81\xcf\xdf\xaf\x06[0\xc8\x0fRN\x95h\xb2&'
p369
ssS'_usr_local_lib_python2_7_dist-packages_elasticsearch_client_indices'
p370
(dp371
g6
(dp372
g8
S'_usr_local_lib_python2_7_dist-packages_elasticsearch_client_indices.html'
p373
sg10
S'/usr/local/lib/python2.7/dist-packages/elasticsearch/client/indices'
p374
sg12
g13
(g14
g15
NtRp375
(dp376
g18
I1
sg19
I0
sg20
I219
sg21
I0
sg22
I0
sg23
I138
sg24
I0
sbssg25
S'\xe3Y\xa2\x8c]g\x06N\xcd\xce\xab[\xf5\xbfv\x17'
p377
ssS'_usr_local_lib_python2_7_dist-packages_elasticsearch_client_snapshot'
p378
(dp379
g6
(dp380
g8
S'_usr_local_lib_python2_7_dist-packages_elasticsearch_client_snapshot.html'
p381
sg10
S'/usr/local/lib/python2.7/dist-packages/elasticsearch/client/snapshot'
p382
sg12
g13
(g14
g15
NtRp383
(dp384
g18
I1
sg19
I0
sg20
I57
sg21
I0
sg22
I0
sg23
I37
sg24
I0
sbssg25
S'"\xc5\x91\xbf\x9a\x0b B\xc5:e\xb4^\xe7\xd6/'
p385
ssS'_usr_local_lib_python2_7_dist-packages_riak_transports_feature_detect'
p386
(dp387
g6
(dp388
g8
S'_usr_local_lib_python2_7_dist-packages_riak_transports_feature_detect.html'
p389
sg10
S'/usr/local/lib/python2.7/dist-packages/riak/transports/feature_detect'
p390
sg12
g13
(g14
g15
NtRp391
(dp392
g18
I1
sg19
I0
sg20
I42
sg21
I0
sg22
I0
sg23
I19
sg24
I0
sbssg25
S'EB\x9d\xfc\xad\x9d\xa0\xbc\xcb\xb0\xc3\xa3\x11\xda\x02\xed'
p393
ssS'elasticsearch_backend_indexer'
p394
(dp395
g6
(dp396
g8
S'elasticsearch_backend_indexer.html'
p397
sg10
S'elasticsearch_backend/indexer'
p398
sg12
g13
(g14
g15
NtRp399
(dp400
g18
I1
sg19
I0
sg20
I76
sg21
I0
sg22
I0
sg23
I62
sg24
I0
sbssg25
S'n\xd8\x8d$,\x08k\x12\xf4Y\x82i\xfeWY\x99'
p401
ssS'_usr_local_lib_python2_7_dist-packages_elasticsearch_connection_pool'
p402
(dp403
g6
(dp404
g8
S'_usr_local_lib_python2_7_dist-packages_elasticsearch_connection_pool.html'
p405
sg10
S'/usr/local/lib/python2.7/dist-packages/elasticsearch/connection_pool'
p406
sg12
g13
(g14
g15
NtRp407
(dp408
g18
I1
sg19
I0
sg20
I92
sg21
I0
sg22
I0
sg23
I66
sg24
I0
sbssg25
S'\xd0\x9am\x14T\xff\x150(\xff\xee\xd6{i_\x1c'
p409
ssS'_usr_local_lib_python2_7_dist-packages_nose_pyversion'
p410
(dp411
g6
(dp412
g8
S'_usr_local_lib_python2_7_dist-packages_nose_pyversion.html'
p413
sg10
S'/usr/local/lib/python2.7/dist-packages/nose/pyversion'
p414
sg12
g13
(g14
g15
NtRp415
(dp416
g18
I1
sg19
I0
sg20
I132
sg21
I0
sg22
I0
sg23
I121
sg24
I0
sbssg25
S'\xf5<\xc9\x86\x97\x0f\xc4\xa5T1\xd1\x8d\x9cP\x90O'
p417
ssS'_usr_local_lib_python2_7_dist-packages_psycopg2_extensions'
p418
(dp419
g6
(dp420
g8
S'_usr_local_lib_python2_7_dist-packages_psycopg2_extensions.html'
p421
sg10
S'/usr/local/lib/python2.7/dist-packages/psycopg2/extensions'
p422
sg12
g13
(g14
g15
NtRp423
(dp424
g18
I1
sg19
I0
sg20
I92
sg21
I0
sg22
I0
sg23
I24
sg24
I0
sbssg25
S'\xb0\xcd\xa9\xabO5\xf6;\x9ak\xf0\xbf\xd5\x95\xbc\xde'
p425
ssS'_usr_local_lib_python2_7_dist-packages_elasticsearch_connection___init__'
p426
(dp427
g6
(dp428
g8
S'_usr_local_lib_python2_7_dist-packages_elasticsearch_connection___init__.html'
p429
sg10
S'/usr/local/lib/python2.7/dist-packages/elasticsearch/connection/__init__'
p430
sg12
g13
(g14
g15
NtRp431
(dp432
g18
I1
sg19
I0
sg20
I5
sg21
I0
sg22
I0
sg23
I0
sg24
I0
sbssg25
S'\x00lA\xba;v\x18\x1de\x05\x979\xa5\xebU-'
p433
ssS'_usr_local_lib_python2_7_dist-packages_elasticsearch_client_nodes'
p434
(dp435
g6
(dp436
g8
S'_usr_local_lib_python2_7_dist-packages_elasticsearch_client_nodes.html'
p437
sg10
S'/usr/local/lib/python2.7/dist-packages/elasticsearch/client/nodes'
p438
sg12
g13
(g14
g15
NtRp439
(dp440
g18
I1
sg19
I0
sg20
I20
sg21
I0
sg22
I0
sg23
I10
sg24
I0
sbssg25
S'\xe8T\xdb7\xa4k7\xe7\x1a\xab\x0f\xf9\xc2\xfeH\xaa'
p441
ssS'_usr_local_lib_python2_7_dist-packages_cryptography_hazmat_bindings_openssl_engine'
p442
(dp443
g6
(dp444
g8
S'_usr_local_lib_python2_7_dist-packages_cryptography_hazmat_bindings_openssl_engine.html'
p445
sg10
S'/usr/local/lib/python2.7/dist-packages/cryptography/hazmat/bindings/openssl/engine'
p446
sg12
g13
(g14
g15
NtRp447
(dp448
g18
I1
sg19
I0
sg20
I7
sg21
I0
sg22
I0
sg23
I0
sg24
I0
sbssg25
S'\xbal\xa1\x0e\x00%\x19\x0e\x10\x10p\xb2{\xd0\xab\xd6'
p449
ssS'_usr_local_lib_python2_7_dist-packages_requests___init__'
p450
(dp451
g6
(dp452
g8
S'_usr_local_lib_python2_7_dist-packages_requests___init__.html'
p453
sg10
S'/usr/local/lib/python2.7/dist-packages/requests/__init__'
p454
sg12
g13
(g14
g15
NtRp455
(dp456
g18
I1
sg19
I0
sg20
I26
sg21
I0
sg22
I0
sg23
I5
sg24
I0
sbssg25
S'KP;S\xaf\xd9\x7f\x8c\t\xbd\xcd\x8e\x08\x0e\x96D'
p457
ssS'_usr_local_lib_python2_7_dist-packages_jinja2___init__'
p458
(dp459
g6
(dp460
g8
S'_usr_local_lib_python2_7_dist-packages_jinja2___init__.html'
p461
sg10
S'/usr/local/lib/python2.7/dist-packages/jinja2/__init__'
p462
sg12
g13
(g14
g15
NtRp463
(dp464
g18
I1
sg19
I0
sg20
I11
sg21
I0
sg22
I0
sg23
I0
sg24
I0
sbssg25
S'\\\r\x9b(\x8d\x88\x89\xaaaX\xe8\xfc\x15~=!'
p465
ssS'_usr_local_lib_python2_7_dist-packages_elasticsearch_client_utils'
p466
(dp467
g6
(dp468
g8
S'_usr_local_lib_python2_7_dist-packages_elasticsearch_client_utils.html'
p469
sg10
S'/usr/local/lib/python2.7/dist-packages/elasticsearch/client/utils'
p470
sg12
g13
(g14
g15
NtRp471
(dp472
g18
I1
sg19
I0
sg20
I39
sg21
I0
sg22
I0
sg23
I23
sg24
I0
sbssg25
S'\x15\xcb"\xac\xd9\xe9\xe1\xf4\x85w\x92\x15e\xf0\xdcq'
p473
ssS'corrections_api'
p474
(dp475
g6
(dp476
g8
S'corrections_api.html'
p477
sg10
S'corrections/api'
p478
sg12
g13
(g14
g15
NtRp479
(dp480
g18
I1
sg19
I0
sg20
I189
sg21
I0
sg22
I0
sg23
I63
sg24
I0
sbssg25
S'f\\\x04B\xa8\xd5k\xe00\x0f\xf9\x8b\xd3=\x8dq'
p481
ssS'_usr_local_lib_python2_7_dist-packages_cryptography_hazmat_bindings_openssl_objects'
p482
(dp483
g6
(dp484
g8
S'_usr_local_lib_python2_7_dist-packages_cryptography_hazmat_bindings_openssl_objects.html'
p485
sg10
S'/usr/local/lib/python2.7/dist-packages/cryptography/hazmat/bindings/openssl/objects'
p486
sg12
g13
(g14
g15
NtRp487
(dp488
g18
I1
sg19
I0
sg20
I7
sg21
I0
sg22
I0
sg23
I0
sg24
I0
sbssg25
S'&\x12\xac\xd9\xea\xd9\x83\xc5\xcb2\x8b\xc6/K\xa2\xdc'
p489
ssS'_usr_local_lib_python2_7_dist-packages_elasticsearch_compat'
p490
(dp491
g6
(dp492
g8
S'_usr_local_lib_python2_7_dist-packages_elasticsearch_compat.html'
p493
sg10
S'/usr/local/lib/python2.7/dist-packages/elasticsearch/compat'
p494
sg12
g13
(g14
g15
NtRp495
(dp496
g18
I1
sg19
I0
sg20
I10
sg21
I0
sg22
I0
sg23
I3
sg24
I0
sbssg25
S'%\xa24\x84\x82\xac\x14\x93\xd7:\xb7\xda\x83G\x80\r'
p497
ssS'_usr_local_lib_python2_7_dist-packages_requests_packages_urllib3___init__'
p498
(dp499
g6
(dp500
g8
S'_usr_local_lib_python2_7_dist-packages_requests_packages_urllib3___init__.html'
p501
sg10
S'/usr/local/lib/python2.7/dist-packages/requests/packages/urllib3/__init__'
p502
sg12
g13
(g14
g15
NtRp503
(dp504
g18
I1
sg19
I0
sg20
I33
sg21
I0
sg22
I0
sg23
I12
sg24
I0
sbssg25
S'at\x03K\x12R\xce\xc7{\x82M/\xc9\xbf\nl'
p505
ssS'_usr_local_lib_python2_7_dist-packages_elasticsearch_helpers___init__'
p506
(dp507
g6
(dp508
g8
S'_usr_local_lib_python2_7_dist-packages_elasticsearch_helpers___init__.html'
p509
sg10
S'/usr/local/lib/python2.7/dist-packages/elasticsearch/helpers/__init__'
p510
sg12
g13
(g14
g15
NtRp511
(dp512
g18
I1
sg19
I0
sg20
I94
sg21
I0
sg22
I0
sg23
I82
sg24
I0
sbssg25
S'\xb6\x00s=Ggk&\xb7F\xa2\xad\xad\xfcR0'
p513
ssS'_usr_local_lib_python2_7_dist-packages_cryptography_hazmat_bindings_openssl_pkcs12'
p514
(dp515
g6
(dp516
g8
S'_usr_local_lib_python2_7_dist-packages_cryptography_hazmat_bindings_openssl_pkcs12.html'
p517
sg10
S'/usr/local/lib/python2.7/dist-packages/cryptography/hazmat/bindings/openssl/pkcs12'
p518
sg12
g13
(g14
g15
NtRp519
(dp520
g18
I1
sg19
I0
sg20
I7
sg21
I0
sg22
I0
sg23
I0
sg24
I0
sbssg25
S'\xca\xed\r\xba~\xa0\xc4\xbe\xca\x8b\x00!D\xccN\xe5'
p521
ssS'_usr_local_lib_python2_7_dist-packages_riak_transports_http_stream'
p522
(dp523
g6
(dp524
g8
S'_usr_local_lib_python2_7_dist-packages_riak_transports_http_stream.html'
p525
sg10
S'/usr/local/lib/python2.7/dist-packages/riak/transports/http/stream'
p526
sg12
g13
(g14
g15
NtRp527
(dp528
g18
I1
sg19
I0
sg20
I116
sg21
I0
sg22
I0
sg23
I76
sg24
I0
sbssg25
S'\xb8\x0f\x15\xbf\xe3\xc9\xe8\xe1\x08e\xeb5&-H\xeb'
p529
ssS'_usr_local_lib_python2_7_dist-packages_flask_json'
p530
(dp531
g6
(dp532
g8
S'_usr_local_lib_python2_7_dist-packages_flask_json.html'
p533
sg10
S'/usr/local/lib/python2.7/dist-packages/flask/json'
p534
sg12
g13
(g14
g15
NtRp535
(dp536
g18
I1
sg19
I0
sg20
I83
sg21
I0
sg22
I0
sg23
I33
sg24
I0
sbssg25
S")\xd0\x1f|.\x08(\xd9'#\xbfU76h;"
p537
ssS'_usr_local_lib_python2_7_dist-packages_elasticsearch_exceptions'
p538
(dp539
g6
(dp540
g8
S'_usr_local_lib_python2_7_dist-packages_elasticsearch_exceptions.html'
p541
sg10
S'/usr/local/lib/python2.7/dist-packages/elasticsearch/exceptions'
p542
sg12
g13
(g14
g15
NtRp543
(dp544
g18
I1
sg19
I0
sg20
I26
sg21
I0
sg22
I0
sg23
I6
sg24
I0
sbssg25
S'\xd3\xeb\xaa\xce\x11\'r\x8bA">\x02\x97s\xca\xec'
p545
ssS'_usr_local_lib_python2_7_dist-packages_OpenSSL_crypto'
p546
(dp547
g6
(dp548
g8
S'_usr_local_lib_python2_7_dist-packages_OpenSSL_crypto.html'
p549
sg10
S'/usr/local/lib/python2.7/dist-packages/OpenSSL/crypto'
p550
sg12
g13
(g14
g15
NtRp551
(dp552
g18
I1
sg19
I0
sg20
I1008
sg21
I0
sg22
I0
sg23
I835
sg24
I0
sbssg25
S'\xa1\xcdY\xfa\xb2\x01v\x9e\x88\x05nb\xb3\xe8\xa1\xdd'
p553
ssS'_usr_local_lib_python2_7_dist-packages_nose_plugins_failuredetail'
p554
(dp555
g6
(dp556
g8
S'_usr_local_lib_python2_7_dist-packages_nose_plugins_failuredetail.html'
p557
sg10
S'/usr/local/lib/python2.7/dist-packages/nose/plugins/failuredetail'
p558
sg12
g13
(g14
g15
NtRp559
(dp560
g18
I1
sg19
I0
sg20
I20
sg21
I0
sg22
I0
sg23
I17
sg24
I0
sbssg25
S'\x85-\xcb0\x973\x13j\xc8r\xb2\xf2\xbc\xa5iK'
p561
ssS'_usr_local_lib_python2_7_dist-packages_nose_proxy'
p562
(dp563
g6
(dp564
g8
S'_usr_local_lib_python2_7_dist-packages_nose_proxy.html'
p565
sg10
S'/usr/local/lib/python2.7/dist-packages/nose/proxy'
p566
sg12
g13
(g14
g15
NtRp567
(dp568
g18
I1
sg19
I0
sg20
I108
sg21
I0
sg22
I0
sg23
I61
sg24
I0
sbssg25
S'\xedN\xa1\x12!\xdbu\xe1\xc2z\xa0\x85\xa1l1;'
p569
ssS'_usr_local_lib_python2_7_dist-packages_requests_packages_chardet___init__'
p570
(dp571
g6
(dp572
g8
S'_usr_local_lib_python2_7_dist-packages_requests_packages_chardet___init__.html'
p573
sg10
S'/usr/local/lib/python2.7/dist-packages/requests/packages/chardet/__init__'
p574
sg12
g13
(g14
g15
NtRp575
(dp576
g18
I1
sg19
I0
sg20
I11
sg21
I0
sg22
I0
sg23
I8
sg24
I0
sbssg25
S'\xaa\xf8\xb0\xef\x88H\xd1\xb4fO+\xb4\x93\x1c\\%'
p577
ssS'_usr_local_lib_python2_7_dist-packages_psycopg2__json'
p578
(dp579
g6
(dp580
g8
S'_usr_local_lib_python2_7_dist-packages_psycopg2__json.html'
p581
sg10
S'/usr/local/lib/python2.7/dist-packages/psycopg2/_json'
p582
sg12
g13
(g14
g15
NtRp583
(dp584
g18
I1
sg19
I0
sg20
I76
sg21
I0
sg22
I0
sg23
I37
sg24
I0
sbssg25
S'\xc9\xea(\xf7e\x8b\x99x-\xe1\xf2\x93C\x7f\xfc\x87'
p585
ssS'_usr_local_lib_python2_7_dist-packages_requests_packages_urllib3_util_timeout'
p586
(dp587
g6
(dp588
g8
S'_usr_local_lib_python2_7_dist-packages_requests_packages_urllib3_util_timeout.html'
p589
sg10
S'/usr/local/lib/python2.7/dist-packages/requests/packages/urllib3/util/timeout'
p590
sg12
g13
(g14
g15
NtRp591
(dp592
g18
I1
sg19
I0
sg20
I57
sg21
I0
sg22
I0
sg23
I41
sg24
I0
sbssg25
S'\xa1}Vqd\x11\xe6\x8b\xe3\xae\xe7X$\xa2\xd0\xac'
p593
ssS'data_tables_locality'
p594
(dp595
g6
(dp596
g8
S'data_tables_locality.html'
p597
sg10
S'data_tables/locality'
p598
sg12
g13
(g14
g15
NtRp599
(dp600
g18
I1
sg19
I0
sg20
I34
sg21
I0
sg22
I0
sg23
I31
sg24
I0
sbssg25
S'\x12\x85b\xa2\x98f\x1dNZ\x11\x93\xa1\xa9\x02`\xdf'
p601
ssS'_usr_local_lib_python2_7_dist-packages_riak_security'
p602
(dp603
g6
(dp604
g8
S'_usr_local_lib_python2_7_dist-packages_riak_security.html'
p605
sg10
S'/usr/local/lib/python2.7/dist-packages/riak/security'
p606
sg12
g13
(g14
g15
NtRp607
(dp608
g18
I1
sg19
I0
sg20
I99
sg21
I0
sg22
I0
sg23
I64
sg24
I0
sbssg25
S'D!q\xcbh\xfd\xb0\x90he\xb7\xce\xd1|\x1f\xf0'
p609
ssS'_usr_local_lib_python2_7_dist-packages_flask_globals'
p610
(dp611
g6
(dp612
g8
S'_usr_local_lib_python2_7_dist-packages_flask_globals.html'
p613
sg10
S'/usr/local/lib/python2.7/dist-packages/flask/globals'
p614
sg12
g13
(g14
g15
NtRp615
(dp616
g18
I1
sg19
I0
sg20
I24
sg21
I0
sg22
I0
sg23
I5
sg24
I0
sbssg25
S'\x87\xfa\x8fDxC\x1c/\x18{\xa4\xf3\x90\xfex-'
p617
ssS'_usr_local_lib_python2_7_dist-packages_riak_client_transport'
p618
(dp619
g6
(dp620
g8
S'_usr_local_lib_python2_7_dist-packages_riak_client_transport.html'
p621
sg10
S'/usr/local/lib/python2.7/dist-packages/riak/client/transport'
p622
sg12
g13
(g14
g15
NtRp623
(dp624
g18
I1
sg19
I0
sg20
I81
sg21
I0
sg22
I0
sg23
I47
sg24
I0
sbssg25
S'\x92\\"\x0b\xb5\x07&X\xfe\xfe\x83\xec(%3\x01'
p625
ssS'_usr_local_lib_python2_7_dist-packages_requests_packages_urllib3_filepost'
p626
(dp627
g6
(dp628
g8
S'_usr_local_lib_python2_7_dist-packages_requests_packages_urllib3_filepost.html'
p629
sg10
S'/usr/local/lib/python2.7/dist-packages/requests/packages/urllib3/filepost'
p630
sg12
g13
(g14
g15
NtRp631
(dp632
g18
I1
sg19
I0
sg20
I38
sg21
I0
sg22
I0
sg23
I27
sg24
I0
sbssg25
S'\x82\x9c\x03\xa4\xb6\xef\xea\x91\x97\x99VE\xa6\xcc\x8d\t'
p633
ssS'_usr_local_lib_python2_7_dist-packages_requests_packages_urllib3_util_retry'
p634
(dp635
g6
(dp636
g8
S'_usr_local_lib_python2_7_dist-packages_requests_packages_urllib3_util_retry.html'
p637
sg10
S'/usr/local/lib/python2.7/dist-packages/requests/packages/urllib3/util/retry'
p638
sg12
g13
(g14
g15
NtRp639
(dp640
g18
I1
sg19
I0
sg20
I98
sg21
I0
sg22
I0
sg23
I67
sg24
I0
sbssg25
S'\xa4\xeaw\x98\xc8\xae\r\xad\xb9\xf1?\xe0^\xe5\x1a '
p641
ssS'_usr_local_lib_python2_7_dist-packages_pytz_lazy'
p642
(dp643
g6
(dp644
g8
S'_usr_local_lib_python2_7_dist-packages_pytz_lazy.html'
p645
sg10
S'/usr/local/lib/python2.7/dist-packages/pytz/lazy'
p646
sg12
g13
(g14
g15
NtRp647
(dp648
g18
I1
sg19
I0
sg20
I97
sg21
I0
sg22
I0
sg23
I39
sg24
I0
sbssg25
S'\x058\xdf\x83Dk\x8b+\xcc\xd5\x9f\x84 ra\x8a'
p649
ssS'_usr_local_lib_python2_7_dist-packages_riak_node'
p650
(dp651
g6
(dp652
g8
S'_usr_local_lib_python2_7_dist-packages_riak_node.html'
p653
sg10
S'/usr/local/lib/python2.7/dist-packages/riak/node'
p654
sg12
g13
(g14
g15
NtRp655
(dp656
g18
I1
sg19
I0
sg20
I26
sg21
I0
sg22
I0
sg23
I8
sg24
I0
sbssg25
S'L_\xe89\xe2\xff\xc3\x13x4\xf0\xff!Wd\xf0'
p657
ssS'_usr_local_lib_python2_7_dist-packages_riak_datatypes_flag'
p658
(dp659
g6
(dp660
g8
S'_usr_local_lib_python2_7_dist-packages_riak_datatypes_flag.html'
p661
sg10
S'/usr/local/lib/python2.7/dist-packages/riak/datatypes/flag'
p662
sg12
g13
(g14
g15
NtRp663
(dp664
g18
I1
sg19
I0
sg20
I21
sg21
I0
sg22
I0
sg23
I8
sg24
I0
sbssg25
S'Z\xed\xa3\xab\xa9\x90\xd7\xd2#\x87!\xf8C\xa7\x13\x10'
p665
ssS'_usr_local_lib_python2_7_dist-packages_nose_plugins_doctests'
p666
(dp667
g6
(dp668
g8
S'_usr_local_lib_python2_7_dist-packages_nose_plugins_doctests.html'
p669
sg10
S'/usr/local/lib/python2.7/dist-packages/nose/plugins/doctests'
p670
sg12
g13
(g14
g15
NtRp671
(dp672
g18
I1
sg19
I0
sg20
I221
sg21
I0
sg22
I0
sg23
I213
sg24
I0
sbssg25
S'\xef\xab\x91\xdb\x89\xa5\x94\x11S\x9cm\xe9\xbb\xf7\x00\xdc'
p673
ssS'_usr_local_lib_python2_7_dist-packages_elasticsearch_connection_thrift'
p674
(dp675
g6
(dp676
g8
S'_usr_local_lib_python2_7_dist-packages_elasticsearch_connection_thrift.html'
p677
sg10
S'/usr/local/lib/python2.7/dist-packages/elasticsearch/connection/thrift'
p678
sg12
g13
(g14
g15
NtRp679
(dp680
g18
I1
sg19
I0
sg20
I66
sg21
I0
sg22
I0
sg23
I50
sg24
I0
sbssg25
S'\xdb0\xfb\x81\xc8/\x1f\xc4dR&\xa0P\x05-\xc9'
p681
ssS'_usr_local_lib_python2_7_dist-packages_cryptography_hazmat_bindings_openssl___init__'
p682
(dp683
g6
(dp684
g8
S'_usr_local_lib_python2_7_dist-packages_cryptography_hazmat_bindings_openssl___init__.html'
p685
sg10
S'/usr/local/lib/python2.7/dist-packages/cryptography/hazmat/bindings/openssl/__init__'
p686
sg12
g13
(g14
g15
NtRp687
(dp688
g18
I1
sg19
I0
sg20
I1
sg21
I0
sg22
I0
sg23
I0
sg24
I0
sbssg25
S'\xcc\xde-"\x7f\x11\x14\xb1\xf8\xef\xe1\xcc{\xc8M$'
p689
ssS'_usr_local_lib_python2_7_dist-packages_jinja2_tests'
p690
(dp691
g6
(dp692
g8
S'_usr_local_lib_python2_7_dist-packages_jinja2_tests.html'
p693
sg10
S'/usr/local/lib/python2.7/dist-packages/jinja2/tests'
p694
sg12
g13
(g14
g15
NtRp695
(dp696
g18
I1
sg19
I0
sg20
I47
sg21
I0
sg22
I0
sg23
I24
sg24
I0
sbssg25
S'\xb1[}x+R\x19\xd1\xe4\xc4\xf3\xcb"5\xe8\xfd'
p697
ssS'_usr_local_lib_python2_7_dist-packages_elasticsearch_connection_pooling'
p698
(dp699
g6
(dp700
g8
S'_usr_local_lib_python2_7_dist-packages_elasticsearch_connection_pooling.html'
p701
sg10
S'/usr/local/lib/python2.7/dist-packages/elasticsearch/connection/pooling'
p702
sg12
g13
(g14
g15
NtRp703
(dp704
g18
I1
sg19
I0
sg20
I16
sg21
I0
sg22
I0
sg23
I7
sg24
I0
sbssg25
S'\x83\xe4\xfe\xca\\\x18@\xa5\x0b\x14\x82\xcb\r[\x83%'
p705
ssS'tests_test_corrections_api'
p706
(dp707
g6
(dp708
g8
S'tests_test_corrections_api.html'
p709
sg10
S'tests/test_corrections_api'
p710
sg12
g13
(g14
g15
NtRp711
(dp712
g18
I1
sg19
I0
sg20
I88
sg21
I0
sg22
I0
sg23
I1
sg24
I0
sbssg25
S'Z^\xe6d\x8d\x0b1H\x1c\x03WL\x80\xf1\xdf2'
p713
ssS'_usr_local_lib_python2_7_dist-packages_requests_packages_urllib3_util_connection'
p714
(dp715
g6
(dp716
g8
S'_usr_local_lib_python2_7_dist-packages_requests_packages_urllib3_util_connection.html'
p717
sg10
S'/usr/local/lib/python2.7/dist-packages/requests/packages/urllib3/util/connection'
p718
sg12
g13
(g14
g15
NtRp719
(dp720
g18
I1
sg19
I0
sg20
I55
sg21
I0
sg22
I0
sg23
I49
sg24
I0
sbssg25
S'\xc5\x83\xec\xd0c(\xedO\x99#u\x13\x02\x95U\x8d'
p721
ssS'_usr_local_lib_python2_7_dist-packages_requests_packages_urllib3_fields'
p722
(dp723
g6
(dp724
g8
S'_usr_local_lib_python2_7_dist-packages_requests_packages_urllib3_fields.html'
p725
sg10
S'/usr/local/lib/python2.7/dist-packages/requests/packages/urllib3/fields'
p726
sg12
g13
(g14
g15
NtRp727
(dp728
g18
I1
sg19
I0
sg20
I68
sg21
I0
sg22
I0
sg23
I56
sg24
I0
sbssg25
S')\x88d\x848k\xf1e\x88\xff\xc7\xfd\xb7\xcc\xe88'
p729
ssS'_usr_local_lib_python2_7_dist-packages_riak_transports_http_transport'
p730
(dp731
g6
(dp732
g8
S'_usr_local_lib_python2_7_dist-packages_riak_transports_http_transport.html'
p733
sg10
S'/usr/local/lib/python2.7/dist-packages/riak/transports/http/transport'
p734
sg12
g13
(g14
g15
NtRp735
(dp736
g18
I1
sg19
I0
sg20
I403
sg21
I0
sg22
I0
sg23
I350
sg24
I0
sbssg25
S'\xe0\x1e\xf65\xcf6A;\xe3\x87e!R8\xb0\xbd'
p737
ssS'_usr_local_lib_python2_7_dist-packages_requests_packages_urllib3_packages_six'
p738
(dp739
g6
(dp740
g8
S'_usr_local_lib_python2_7_dist-packages_requests_packages_urllib3_packages_six.html'
p741
sg10
S'/usr/local/lib/python2.7/dist-packages/requests/packages/urllib3/packages/six'
p742
sg12
g13
(g14
g15
NtRp743
(dp744
g18
I1
sg19
I0
sg20
I217
sg21
I0
sg22
I0
sg23
I114
sg24
I0
sbssg25
S'\xab\x8a\xe8\xb1E\xfd\x87\x9b\xfe\x8f&\xaf1\xd8\xd7v'
p745
ssS'_usr_local_lib_python2_7_dist-packages_jinja2_environment'
p746
(dp747
g6
(dp748
g8
S'_usr_local_lib_python2_7_dist-packages_jinja2_environment.html'
p749
sg10
S'/usr/local/lib/python2.7/dist-packages/jinja2/environment'
p750
sg12
g13
(g14
g15
NtRp751
(dp752
g18
I1
sg19
I0
sg20
I488
sg21
I0
sg22
I0
sg23
I391
sg24
I0
sbssg25
S'"\xb09\xba\xfdX\xb0\x17\xe1zE\xf0Xk\x9f\x0e'
p753
ssS'data_api_common'
p754
(dp755
g6
(dp756
g8
S'data_api_common.html'
p757
sg10
S'data_api/common'
p758
sg12
g13
(g14
g15
NtRp759
(dp760
g18
I1
sg19
I0
sg20
I15
sg21
I0
sg22
I0
sg23
I10
sg24
I0
sbssg25
S'.6\ts\xcb\x88\x96\x192]\xb0\x01\x08\x8a\xbfk'
p761
ssS'_usr_local_lib_python2_7_dist-packages_nose_result'
p762
(dp763
g6
(dp764
g8
S'_usr_local_lib_python2_7_dist-packages_nose_result.html'
p765
sg10
S'/usr/local/lib/python2.7/dist-packages/nose/result'
p766
sg12
g13
(g14
g15
NtRp767
(dp768
g18
I1
sg19
I0
sg20
I131
sg21
I0
sg22
I0
sg23
I98
sg24
I0
sbssg25
S'L \x0c^\xe6\xf9\x9aWS\xc8C{\x8eM\xad9'
p769
ssS'_usr_local_lib_python2_7_dist-packages_riak_transports_pbc_connection'
p770
(dp771
g6
(dp772
g8
S'_usr_local_lib_python2_7_dist-packages_riak_transports_pbc_connection.html'
p773
sg10
S'/usr/local/lib/python2.7/dist-packages/riak/transports/pbc/connection'
p774
sg12
g13
(g14
g15
NtRp775
(dp776
g18
I1
sg19
I0
sg20
I136
sg21
I0
sg22
I0
sg23
I107
sg24
I0
sbssg25
S'g\x1d\xe6H\xc3\xd7>V)\x02\xa5\xf71!\x14/'
p777
ssS'_usr_local_lib_python2_7_dist-packages_riak_datatypes_datatype'
p778
(dp779
g6
(dp780
g8
S'_usr_local_lib_python2_7_dist-packages_riak_datatypes_datatype.html'
p781
sg10
S'/usr/local/lib/python2.7/dist-packages/riak/datatypes/datatype'
p782
sg12
g13
(g14
g15
NtRp783
(dp784
g18
I1
sg19
I0
sg20
I69
sg21
I0
sg22
I0
sg23
I46
sg24
I0
sbssg25
S'o\x18\x86|\xcf\x8fj\x1c0:\x7f\xd4 \x88@\x86'
p785
ssS'_usr_local_lib_python2_7_dist-packages_requests_status_codes'
p786
(dp787
g6
(dp788
g8
S'_usr_local_lib_python2_7_dist-packages_requests_status_codes.html'
p789
sg10
S'/usr/local/lib/python2.7/dist-packages/requests/status_codes'
p790
sg12
g13
(g14
g15
NtRp791
(dp792
g18
I1
sg19
I0
sg20
I8
sg21
I0
sg22
I0
sg23
I0
sg24
I0
sbssg25
S'\x1d\xfc-9_\x907w\x8eXP\xb4\x9c\xaf\x1a\xfb'
p793
ssS'_usr_local_lib_python2_7_dist-packages_pyproj_datadir'
p794
(dp795
g6
(dp796
g8
S'_usr_local_lib_python2_7_dist-packages_pyproj_datadir.html'
p797
sg10
S'/usr/local/lib/python2.7/dist-packages/pyproj/datadir'
p798
sg12
g13
(g14
g15
NtRp799
(dp800
g18
I1
sg19
I0
sg20
I4
sg21
I0
sg22
I0
sg23
I1
sg24
I0
sbssg25
S'\x960\xac\xd7PW\x82\x8d\x03\x9b\xe2#\xb6;\x90{'
p801
ssS'_usr_local_lib_python2_7_dist-packages_requests_packages_urllib3_poolmanager'
p802
(dp803
g6
(dp804
g8
S'_usr_local_lib_python2_7_dist-packages_requests_packages_urllib3_poolmanager.html'
p805
sg10
S'/usr/local/lib/python2.7/dist-packages/requests/packages/urllib3/poolmanager'
p806
sg12
g13
(g14
g15
NtRp807
(dp808
g18
I1
sg19
I0
sg20
I116
sg21
I0
sg22
I0
sg23
I81
sg24
I0
sbssg25
S'\xfc\xf9rs\nTj\xdc\xed2\xcb\xc0\xb2X"\xd6'
p809
ssS'_usr_local_lib_python2_7_dist-packages_cryptography_hazmat_bindings_openssl_binding'
p810
(dp811
g6
(dp812
g8
S'_usr_local_lib_python2_7_dist-packages_cryptography_hazmat_bindings_openssl_binding.html'
p813
sg10
S'/usr/local/lib/python2.7/dist-packages/cryptography/hazmat/bindings/openssl/binding'
p814
sg12
g13
(g14
g15
NtRp815
(dp816
g18
I1
sg19
I0
sg20
I52
sg21
I0
sg22
I0
sg23
I24
sg24
I0
sbssg25
S'\x99\xbbc!\xde\x07\x9c\x0e\xc9\xee\x85Z\x8c\x8d?\t'
p817
ssS'_usr_local_lib_python2_7_dist-packages_nose_suite'
p818
(dp819
g6
(dp820
g8
S'_usr_local_lib_python2_7_dist-packages_nose_suite.html'
p821
sg10
S'/usr/local/lib/python2.7/dist-packages/nose/suite'
p822
sg12
g13
(g14
g15
NtRp823
(dp824
g18
I1
sg19
I0
sg20
I396
sg21
I0
sg22
I0
sg23
I217
sg24
I0
sbssg25
S'(\xf4\xf80\x84}\xd3\xe4wU\xcf\x0b\xfc\x1bU?'
p825
ssS'_usr_local_lib_python2_7_dist-packages_jinja2_filters'
p826
(dp827
g6
(dp828
g8
S'_usr_local_lib_python2_7_dist-packages_jinja2_filters.html'
p829
sg10
S'/usr/local/lib/python2.7/dist-packages/jinja2/filters'
p830
sg12
g13
(g14
g15
NtRp831
(dp832
g18
I1
sg19
I0
sg20
I343
sg21
I0
sg22
I0
sg23
I265
sg24
I0
sbssg25
S'\xef#\xc6\xad\x92\x96v^M\x9d\xf0\xfeR\xcal\xc5'
p833
ssS'_usr_local_lib_python2_7_dist-packages_jinja2_compiler'
p834
(dp835
g6
(dp836
g8
S'_usr_local_lib_python2_7_dist-packages_jinja2_compiler.html'
p837
sg10
S'/usr/local/lib/python2.7/dist-packages/jinja2/compiler'
p838
sg12
g13
(g14
g15
NtRp839
(dp840
g18
I1
sg19
I0
sg20
I1030
sg21
I0
sg22
I0
sg23
I885
sg24
I0
sbssg25
S'>*1\xfe\xa9\x03n\x10\x07-\xda\xa4tH\xb7\xfc'
p841
ssS'_usr_local_lib_python2_7_dist-packages_google_protobuf_internal_api_implementation'
p842
(dp843
g6
(dp844
g8
S'_usr_local_lib_python2_7_dist-packages_google_protobuf_internal_api_implementation.html'
p845
sg10
S'/usr/local/lib/python2.7/dist-packages/google/protobuf/internal/api_implementation'
p846
sg12
g13
(g14
g15
NtRp847
(dp848
g18
I1
sg19
I0
sg20
I14
sg21
I0
sg22
I0
sg23
I3
sg24
I0
sbssg25
S'%\\\x86}\xe2\\.\x12\x97#\x16G\x01$\x99@'
p849
ssS'_usr_local_lib_python2_7_dist-packages_requests_auth'
p850
(dp851
g6
(dp852
g8
S'_usr_local_lib_python2_7_dist-packages_requests_auth.html'
p853
sg10
S'/usr/local/lib/python2.7/dist-packages/requests/auth'
p854
sg12
g13
(g14
g15
NtRp855
(dp856
g18
I1
sg19
I0
sg20
I133
sg21
I0
sg22
I0
sg23
I107
sg24
I0
sbssg25
S':\x83\xde\xb6\xb0\xb4\x96\xa3\xca\xaa^\xe9\xf4\x936)'
p857
ssS'_usr_local_lib_python2_7_dist-packages_flask_wrappers'
p858
(dp859
g6
(dp860
g8
S'_usr_local_lib_python2_7_dist-packages_flask_wrappers.html'
p861
sg10
S'/usr/local/lib/python2.7/dist-packages/flask/wrappers'
p862
sg12
g13
(g14
g15
NtRp863
(dp864
g18
I1
sg19
I0
sg20
I62
sg21
I0
sg22
I0
sg23
I22
sg24
I0
sbssg25
S'\x13\x0b\td\xfa\xbc]g\\"T\xb8\xeb\xb3\xca\xf9'
p865
ssS'_usr_local_lib_python2_7_dist-packages_psycopg2__range'
p866
(dp867
g6
(dp868
g8
S'_usr_local_lib_python2_7_dist-packages_psycopg2__range.html'
p869
sg10
S'/usr/local/lib/python2.7/dist-packages/psycopg2/_range'
p870
sg12
g13
(g14
g15
NtRp871
(dp872
g18
I1
sg19
I0
sg20
I235
sg21
I0
sg22
I0
sg23
I149
sg24
I0
sbssg25
S'\xbc\xea\xb9\xdb\xe8\x1dR\x15\xa7\xd7\xac\xa1S\x12\xd7\x07'
p873
ssS'_usr_local_lib_python2_7_dist-packages_urllib3_filepost'
p874
(dp875
g6
(dp876
g8
S'_usr_local_lib_python2_7_dist-packages_urllib3_filepost.html'
p877
sg10
S'/usr/local/lib/python2.7/dist-packages/urllib3/filepost'
p878
sg12
g13
(g14
g15
NtRp879
(dp880
g18
I1
sg19
I0
sg20
I38
sg21
I0
sg22
I0
sg23
I27
sg24
I0
sbssg25
S'\x82\x9c\x03\xa4\xb6\xef\xea\x91\x97\x99VE\xa6\xcc\x8d\t'
p881
ssS'_usr_local_lib_python2_7_dist-packages_google_protobuf_reflection'
p882
(dp883
g6
(dp884
g8
S'_usr_local_lib_python2_7_dist-packages_google_protobuf_reflection.html'
p885
sg10
S'/usr/local/lib/python2.7/dist-packages/google/protobuf/reflection'
p886
sg12
g13
(g14
g15
NtRp887
(dp888
g18
I1
sg19
I0
sg20
I38
sg21
I0
sg22
I0
sg23
I13
sg24
I0
sbssg25
S'\xd9\x0e\xfd\xd2\x0c\xd3\x06\xf1\xd4\xf9mB\xfb3\xc6\xeb'
p889
ssS'_usr_local_lib_python2_7_dist-packages_urllib3_util_request'
p890
(dp891
g6
(dp892
g8
S'_usr_local_lib_python2_7_dist-packages_urllib3_util_request.html'
p893
sg10
S'/usr/local/lib/python2.7/dist-packages/urllib3/util/request'
p894
sg12
g13
(g14
g15
NtRp895
(dp896
g18
I1
sg19
I0
sg20
I23
sg21
I0
sg22
I0
sg23
I19
sg24
I0
sbssg25
S'\xa7\xd4x\xc4\x84Zs3uqQ\x8f\xdd\xe1t\xcc'
p897
ssS'_usr_local_lib_python2_7_dist-packages_cryptography_hazmat_bindings_utils'
p898
(dp899
g6
(dp900
g8
S'_usr_local_lib_python2_7_dist-packages_cryptography_hazmat_bindings_utils.html'
p901
sg10
S'/usr/local/lib/python2.7/dist-packages/cryptography/hazmat/bindings/utils'
p902
sg12
g13
(g14
g15
NtRp903
(dp904
g18
I1
sg19
I0
sg20
I62
sg21
I0
sg22
I0
sg23
I9
sg24
I0
sbssg25
S"NE[\r1iG9\x91B'\xf7\x03j\xbd%"
p905
ssS'_usr_local_lib_python2_7_dist-packages_elasticsearch_client_cat'
p906
(dp907
g6
(dp908
g8
S'_usr_local_lib_python2_7_dist-packages_elasticsearch_client_cat.html'
p909
sg10
S'/usr/local/lib/python2.7/dist-packages/elasticsearch/client/cat'
p910
sg12
g13
(g14
g15
NtRp911
(dp912
g18
I1
sg19
I0
sg20
I62
sg21
I0
sg22
I0
sg23
I30
sg24
I0
sbssg25
S'bj:1\xfb\x85\x80\xea\x08U\r\xc1q\xdf\x96\x18'
p913
ssS'_usr_local_lib_python2_7_dist-packages_requests_packages_urllib3_util_url'
p914
(dp915
g6
(dp916
g8
S'_usr_local_lib_python2_7_dist-packages_requests_packages_urllib3_util_url.html'
p917
sg10
S'/usr/local/lib/python2.7/dist-packages/requests/packages/urllib3/util/url'
p918
sg12
g13
(g14
g15
NtRp919
(dp920
g18
I1
sg19
I0
sg20
I92
sg21
I0
sg22
I0
sg23
I78
sg24
I0
sbssg25
S')\xb6\nX\xd9\x9e\xe1Z\x87\xbe6\xdfh\xae\r\xfa'
p921
ssS'_usr_local_lib_python2_7_dist-packages_requests_adapters'
p922
(dp923
g6
(dp924
g8
S'_usr_local_lib_python2_7_dist-packages_requests_adapters.html'
p925
sg10
S'/usr/local/lib/python2.7/dist-packages/requests/adapters'
p926
sg12
g13
(g14
g15
NtRp927
(dp928
g18
I1
sg19
I0
sg20
I177
sg21
I0
sg22
I0
sg23
I120
sg24
I0
sbssg25
S'\xd1\x8d\x8dC\x9eF\r|\xd5\\P]\xd8\x9f\xc2i'
p929
ssS'_usr_local_lib_python2_7_dist-packages_requests_packages_urllib3_exceptions'
p930
(dp931
g6
(dp932
g8
S'_usr_local_lib_python2_7_dist-packages_requests_packages_urllib3_exceptions.html'
p933
sg10
S'/usr/local/lib/python2.7/dist-packages/requests/packages/urllib3/exceptions'
p934
sg12
g13
(g14
g15
NtRp935
(dp936
g18
I1
sg19
I0
sg20
I65
sg21
I0
sg22
I0
sg23
I15
sg24
I0
sbssg25
S"\xa4\x0cd\x1a\x8c\xb9'g'\xc4&\xbf\xcabA\x97"
p937
ssS'_usr_local_lib_python2_7_dist-packages_urllib3_fields'
p938
(dp939
g6
(dp940
g8
S'_usr_local_lib_python2_7_dist-packages_urllib3_fields.html'
p941
sg10
S'/usr/local/lib/python2.7/dist-packages/urllib3/fields'
p942
sg12
g13
(g14
g15
NtRp943
(dp944
g18
I1
sg19
I0
sg20
I68
sg21
I0
sg22
I0
sg23
I56
sg24
I0
sbssg25
S')\x88d\x848k\xf1e\x88\xff\xc7\xfd\xb7\xcc\xe88'
p945
ssS'_usr_local_lib_python2_7_dist-packages_elasticsearch_connection_http_requests'
p946
(dp947
g6
(dp948
g8
S'_usr_local_lib_python2_7_dist-packages_elasticsearch_connection_http_requests.html'
p949
sg10
S'/usr/local/lib/python2.7/dist-packages/elasticsearch/connection/http_requests'
p950
sg12
g13
(g14
g15
NtRp951
(dp952
g18
I1
sg19
I0
sg20
I53
sg21
I0
sg22
I0
sg23
I42
sg24
I0
sbssg25
S"eG\x985\xe7s50\xd0\xf9\x82A\xa4!'\x1e"
p953
ssS'config___init__'
p954
(dp955
g6
(dp956
g8
S'config___init__.html'
p957
sg10
S'config/__init__'
p958
sg12
g13
(g14
g15
NtRp959
(dp960
g18
I1
sg19
I0
sg20
I13
sg21
I0
sg22
I0
sg23
I0
sg24
I0
sbssg25
S'Ksr\xe1\x99\xe7\t,\x9f}\x17L\xaeH\xc0\xdc'
p961
ssS'_usr_local_lib_python2_7_dist-packages_nose_case'
p962
(dp963
g6
(dp964
g8
S'_usr_local_lib_python2_7_dist-packages_nose_case.html'
p965
sg10
S'/usr/local/lib/python2.7/dist-packages/nose/case'
p966
sg12
g13
(g14
g15
NtRp967
(dp968
g18
I1
sg19
I0
sg20
I204
sg21
I0
sg22
I0
sg23
I152
sg24
I0
sbssg25
S'-\xbd\xabXD\xb2X\x13\x10|L\xa7\xb8\x9b\x0b\xe1'
p969
ssS'_usr_local_lib_python2_7_dist-packages_flask_module'
p970
(dp971
g6
(dp972
g8
S'_usr_local_lib_python2_7_dist-packages_flask_module.html'
p973
sg10
S'/usr/local/lib/python2.7/dist-packages/flask/module'
p974
sg12
g13
(g14
g15
NtRp975
(dp976
g18
I1
sg19
I0
sg20
I13
sg21
I0
sg22
I0
sg23
I7
sg24
I0
sbssg25
S'\xf0\xdb\x0fZ4%l\x89\x9c]\xb9\xf7v\xe7@;'
p977
ssS'_usr_local_lib_python2_7_dist-packages_urllib3___init__'
p978
(dp979
g6
(dp980
g8
S'_usr_local_lib_python2_7_dist-packages_urllib3___init__.html'
p981
sg10
S'/usr/local/lib/python2.7/dist-packages/urllib3/__init__'
p982
sg12
g13
(g14
g15
NtRp983
(dp984
g18
I1
sg19
I0
sg20
I33
sg21
I0
sg22
I0
sg23
I12
sg24
I0
sbssg25
S'at\x03K\x12R\xce\xc7{\x82M/\xc9\xbf\nl'
p985
ssS'start_corrections_api'
p986
(dp987
g6
(dp988
g8
S'start_corrections_api.html'
p989
sg10
g986
sg12
g13
(g14
g15
NtRp990
(dp991
g18
I1
sg19
I0
sg20
I2
sg21
I0
sg22
I0
sg23
I0
sg24
I0
sbssg25
S'\xb0\xfd\x07\xe6\x0f\xdc\xa4\x1dg\x0b.\x03o\xa4d\xfb'
p992
ssS'_usr_local_lib_python2_7_dist-packages_cryptography_hazmat_bindings_openssl_bignum'
p993
(dp994
g6
(dp995
g8
S'_usr_local_lib_python2_7_dist-packages_cryptography_hazmat_bindings_openssl_bignum.html'
p996
sg10
S'/usr/local/lib/python2.7/dist-packages/cryptography/hazmat/bindings/openssl/bignum'
p997
sg12
g13
(g14
g15
NtRp998
(dp999
g18
I1
sg19
I0
sg20
I7
sg21
I0
sg22
I0
sg23
I0
sg24
I0
sbssg25
S'\xe2\xda~m\xca\x06\xa2{H\xf5\x8f>d\xa0A\x02'
p1000
ssS'_usr_local_lib_python2_7_dist-packages_riak_bucket'
p1001
(dp1002
g6
(dp1003
g8
S'_usr_local_lib_python2_7_dist-packages_riak_bucket.html'
p1004
sg10
S'/usr/local/lib/python2.7/dist-packages/riak/bucket'
p1005
sg12
g13
(g14
g15
NtRp1006
(dp1007
g18
I1
sg19
I0
sg20
I190
sg21
I0
sg22
I0
sg23
I120
sg24
I0
sbssg25
S'\x08\xe9\x8d\xba\x9cL\xea\x8dHb\x8f\x98\x06\xfb\x150'
p1008
ssS'_usr_local_lib_python2_7_dist-packages_riak_transports_http_resources'
p1009
(dp1010
g6
(dp1011
g8
S'_usr_local_lib_python2_7_dist-packages_riak_transports_http_resources.html'
p1012
sg10
S'/usr/local/lib/python2.7/dist-packages/riak/transports/http/resources'
p1013
sg12
g13
(g14
g15
NtRp1014
(dp1015
g18
I1
sg19
I0
sg20
I145
sg21
I0
sg22
I0
sg23
I105
sg24
I0
sbssg25
S',\xd8x\x10v\xb4\x95\xaf\x9e\xa86Mswt\x9a'
p1016
ssS'_usr_local_lib_python2_7_dist-packages_elasticsearch_connection_base'
p1017
(dp1018
g6
(dp1019
g8
S'_usr_local_lib_python2_7_dist-packages_elasticsearch_connection_base.html'
p1020
sg10
S'/usr/local/lib/python2.7/dist-packages/elasticsearch/connection/base'
p1021
sg12
g13
(g14
g15
NtRp1022
(dp1023
g18
I1
sg19
I0
sg20
I52
sg21
I0
sg22
I0
sg23
I35
sg24
I0
sbssg25
S'\xd1\xe0\x9fYc\xb6n}\x0co\x84\x1a\xf8$\xa2>'
p1024
ssS'_usr_local_lib_python2_7_dist-packages_cryptography_hazmat_bindings_openssl_err'
p1025
(dp1026
g6
(dp1027
g8
S'_usr_local_lib_python2_7_dist-packages_cryptography_hazmat_bindings_openssl_err.html'
p1028
sg10
S'/usr/local/lib/python2.7/dist-packages/cryptography/hazmat/bindings/openssl/err'
p1029
sg12
g13
(g14
g15
NtRp1030
(dp1031
g18
I1
sg19
I0
sg20
I7
sg21
I0
sg22
I0
sg23
I0
sg24
I0
sbssg25
S'\x1b\xeb#\xcd\x80\xd1\xc4\x1f)\x15\xdc\xaaY\x1f0='
p1032
ssS'_usr_local_lib_python2_7_dist-packages_jinja2_runtime'
p1033
(dp1034
g6
(dp1035
g8
S'_usr_local_lib_python2_7_dist-packages_jinja2_runtime.html'
p1036
sg10
S'/usr/local/lib/python2.7/dist-packages/jinja2/runtime'
p1037
sg12
g13
(g14
g15
NtRp1038
(dp1039
g18
I1
sg19
I0
sg20
I291
sg21
I0
sg22
I0
sg23
I190
sg24
I0
sbssg25
S'\x19\xf7c\x96\x17V&l+P\x98<Tu4\xa8'
p1040
ssS'_usr_local_lib_python2_7_dist-packages_urllib3_util_url'
p1041
(dp1042
g6
(dp1043
g8
S'_usr_local_lib_python2_7_dist-packages_urllib3_util_url.html'
p1044
sg10
S'/usr/local/lib/python2.7/dist-packages/urllib3/util/url'
p1045
sg12
g13
(g14
g15
NtRp1046
(dp1047
g18
I1
sg19
I0
sg20
I92
sg21
I0
sg22
I0
sg23
I78
sg24
I0
sbssg25
S')\xb6\nX\xd9\x9e\xe1Z\x87\xbe6\xdfh\xae\r\xfa'
p1048
ssS'_usr_local_lib_python2_7_dist-packages_urllib3_poolmanager'
p1049
(dp1050
g6
(dp1051
g8
S'_usr_local_lib_python2_7_dist-packages_urllib3_poolmanager.html'
p1052
sg10
S'/usr/local/lib/python2.7/dist-packages/urllib3/poolmanager'
p1053
sg12
g13
(g14
g15
NtRp1054
(dp1055
g18
I1
sg19
I0
sg20
I116
sg21
I0
sg22
I0
sg23
I84
sg24
I0
sbssg25
S'&\xae!4Lq\x05^\xaf\x92\x0b\x98\xf1\xd3\xfc\xff'
p1056
ssS'_usr_local_lib_python2_7_dist-packages_psycopg2___init__'
p1057
(dp1058
g6
(dp1059
g8
S'_usr_local_lib_python2_7_dist-packages_psycopg2___init__.html'
p1060
sg10
S'/usr/local/lib/python2.7/dist-packages/psycopg2/__init__'
p1061
sg12
g13
(g14
g15
NtRp1062
(dp1063
g18
I1
sg19
I0
sg20
I50
sg21
I0
sg22
I0
sg23
I7
sg24
I0
sbssg25
S'\xc6)"\x84\xb2\x10\xe3\xd8c#\xc2:\xc2yTy'
p1064
ssS'_usr_local_lib_python2_7_dist-packages_requests_packages_urllib3__collections'
p1065
(dp1066
g6
(dp1067
g8
S'_usr_local_lib_python2_7_dist-packages_requests_packages_urllib3__collections.html'
p1068
sg10
S'/usr/local/lib/python2.7/dist-packages/requests/packages/urllib3/_collections'
p1069
sg12
g13
(g14
g15
NtRp1070
(dp1071
g18
I1
sg19
I0
sg20
I176
sg21
I0
sg22
I0
sg23
I118
sg24
I0
sbssg25
S'\xdfn\x98\x0e\xcau\xf6\xe1fp\xed|\xf5\xf1~\x96'
p1072
ssS'tests_test_helpers_idb_flask_authn'
p1073
(dp1074
g6
(dp1075
g8
S'tests_test_helpers_idb_flask_authn.html'
p1076
sg10
S'tests/test_helpers_idb_flask_authn'
p1077
sg12
g13
(g14
g15
NtRp1078
(dp1079
g18
I1
sg19
I0
sg20
I11
sg21
I0
sg22
I0
sg23
I1
sg24
I0
sbssg25
S'\xdc8B\x85HJ\xf6\xbbo\x94M\x90\xd8\xee\x84A'
p1080
ssS'_usr_local_lib_python2_7_dist-packages_elasticsearch_connection_esthrift___init__'
p1081
(dp1082
g6
(dp1083
g8
S'_usr_local_lib_python2_7_dist-packages_elasticsearch_connection_esthrift___init__.html'
p1084
sg10
S'/usr/local/lib/python2.7/dist-packages/elasticsearch/connection/esthrift/__init__'
p1085
sg12
g13
(g14
g15
NtRp1086
(dp1087
g18
I1
sg19
I0
sg20
I1
sg21
I0
sg22
I0
sg23
I0
sg24
I0
sbssg25
S'!3n /\x8aP\\\t\xf7\xee\xf1\xd5\xb8\x9f\x90'
p1088
ssS'_usr_local_lib_python2_7_dist-packages_OpenSSL_version'
p1089
(dp1090
g6
(dp1091
g8
S'_usr_local_lib_python2_7_dist-packages_OpenSSL_version.html'
p1092
sg10
S'/usr/local/lib/python2.7/dist-packages/OpenSSL/version'
p1093
sg12
g13
(g14
g15
NtRp1094
(dp1095
g18
I1
sg19
I0
sg20
I2
sg21
I0
sg22
I0
sg23
I0
sg24
I0
sbssg25
S'\xfdY\xb7\r\xb0\xb5\xca?\xcf\x8e9\xb7\x9b\x04\xd1/'
p1096
ssS'_usr_local_lib_python2_7_dist-packages_riak_riak_object'
p1097
(dp1098
g6
(dp1099
g8
S'_usr_local_lib_python2_7_dist-packages_riak_riak_object.html'
p1100
sg10
S'/usr/local/lib/python2.7/dist-packages/riak/riak_object'
p1101
sg12
g13
(g14
g15
NtRp1102
(dp1103
g18
I1
sg19
I0
sg20
I131
sg21
I0
sg22
I0
sg23
I77
sg24
I0
sbssg25
S'\xdc\xf2\xba\x89\xeb\x1d{\xa4?V\x80\xc8n\x9e\xd6\xbe'
p1104
ssS'_usr_local_lib_python2_7_dist-packages_elasticsearch_client_cluster'
p1105
(dp1106
g6
(dp1107
g8
S'_usr_local_lib_python2_7_dist-packages_elasticsearch_client_cluster.html'
p1108
sg10
S'/usr/local/lib/python2.7/dist-packages/elasticsearch/client/cluster'
p1109
sg12
g13
(g14
g15
NtRp1110
(dp1111
g18
I1
sg19
I0
sg20
I35
sg21
I0
sg22
I0
sg23
I19
sg24
I0
sbssg25
S'\x1d\x825\xf4hs\x11\xf6\xa5\xbfD(\xdb\x7f\xc2\xfb'
p1112
ssS'_usr_local_lib_python2_7_dist-packages_nose_plugins_isolate'
p1113
(dp1114
g6
(dp1115
g8
S'_usr_local_lib_python2_7_dist-packages_nose_plugins_isolate.html'
p1116
sg10
S'/usr/local/lib/python2.7/dist-packages/nose/plugins/isolate'
p1117
sg12
g13
(g14
g15
NtRp1118
(dp1119
g18
I1
sg19
I0
sg20
I34
sg21
I0
sg22
I0
sg23
I32
sg24
I0
sbssg25
S'\x90\xe9G\xd3I\x14\xde\x00P\xb7\xa2\xfa\xdc\x9b#Z'
p1120
ssS'_usr_local_lib_python2_7_dist-packages_jinja2_exceptions'
p1121
(dp1122
g6
(dp1123
g8
S'_usr_local_lib_python2_7_dist-packages_jinja2_exceptions.html'
p1124
sg10
S'/usr/local/lib/python2.7/dist-packages/jinja2/exceptions'
p1125
sg12
g13
(g14
g15
NtRp1126
(dp1127
g18
I1
sg19
I0
sg20
I70
sg21
I0
sg22
I0
sg23
I47
sg24
I0
sbssg25
S'\xf3z\xf9\xb0i}\xb8\xf8a\x05\xda\n?\x1c\xfb\x1d'
p1128
ssS'tests___init__'
p1129
(dp1130
g6
(dp1131
g8
S'tests___init__.html'
p1132
sg10
S'tests/__init__'
p1133
sg12
g13
(g14
g15
NtRp1134
(dp1135
g18
I1
sg19
I0
sg20
I2
sg21
I0
sg22
I0
sg23
I0
sg24
I0
sbssg25
S'\xab}\x84y\xcf0\x8f\x84f=a\x17N\x8b\xa4w'
p1136
ssS'_usr_local_lib_python2_7_dist-packages_dateutil_tz'
p1137
(dp1138
g6
(dp1139
g8
S'_usr_local_lib_python2_7_dist-packages_dateutil_tz.html'
p1140
sg10
S'/usr/local/lib/python2.7/dist-packages/dateutil/tz'
p1141
sg12
g13
(g14
g15
NtRp1142
(dp1143
g18
I1
sg19
I0
sg20
I586
sg21
I0
sg22
I0
sg23
I483
sg24
I0
sbssg25
S'\x83?~6\xc4\x14\x01\x0c\xf6K\x07x\xf8P\n\x8c'
p1144
ssS'_usr_local_lib_python2_7_dist-packages_riak_pb_messages'
p1145
(dp1146
g6
(dp1147
g8
S'_usr_local_lib_python2_7_dist-packages_riak_pb_messages.html'
p1148
sg10
S'/usr/local/lib/python2.7/dist-packages/riak_pb/messages'
p1149
sg12
g13
(g14
g15
NtRp1150
(dp1151
g18
I1
sg19
I0
sg20
I60
sg21
I0
sg22
I0
sg23
I0
sg24
I0
sbssg25
S'\\M\x95d\x81\xd3e_Q\xedr\xb1}1\x1f\x00'
p1152
ssS'_usr_local_lib_python2_7_dist-packages_google_protobuf_internal_enum_type_wrapper'
p1153
(dp1154
g6
(dp1155
g8
S'_usr_local_lib_python2_7_dist-packages_google_protobuf_internal_enum_type_wrapper.html'
p1156
sg10
S'/usr/local/lib/python2.7/dist-packages/google/protobuf/internal/enum_type_wrapper'
p1157
sg12
g13
(g14
g15
NtRp1158
(dp1159
g18
I1
sg19
I0
sg20
I21
sg21
I0
sg22
I0
sg23
I9
sg24
I0
sbssg25
S'F\x8d-\x02o\x1fE\xe3\x95t$\xa1\xe0\x1bi\xb0'
p1160
ssS'_usr_local_lib_python2_7_dist-packages_riak_transports_pbc_codec'
p1161
(dp1162
g6
(dp1163
g8
S'_usr_local_lib_python2_7_dist-packages_riak_transports_pbc_codec.html'
p1164
sg10
S'/usr/local/lib/python2.7/dist-packages/riak/transports/pbc/codec'
p1165
sg12
g13
(g14
g15
NtRp1166
(dp1167
g18
I1
sg19
I0
sg20
I327
sg21
I0
sg22
I0
sg23
I270
sg24
I0
sbssg25
S"'\xb6\xae\xf0\x91\x90\xf8Z\x0fU\xd9QL\x94\t\x1c"
p1168
ssS'_usr_local_lib_python2_7_dist-packages_nose_core'
p1169
(dp1170
g6
(dp1171
g8
S'_usr_local_lib_python2_7_dist-packages_nose_core.html'
p1172
sg10
S'/usr/local/lib/python2.7/dist-packages/nose/core'
p1173
sg12
g13
(g14
g15
NtRp1174
(dp1175
g18
I1
sg19
I0
sg20
I170
sg21
I0
sg22
I0
sg23
I147
sg24
I0
sbssg25
S'\xbef\x15\xab\xd7\xc8\x90L\xd4\x19\x1c\xa1H\x96\x94\x86'
p1176
ssS'data_tables_taxon'
p1177
(dp1178
g6
(dp1179
g8
S'data_tables_taxon.html'
p1180
sg10
S'data_tables/taxon'
p1181
sg12
g13
(g14
g15
NtRp1182
(dp1183
g18
I1
sg19
I0
sg20
I26
sg21
I0
sg22
I0
sg23
I25
sg24
I0
sbssg25
S'\x1b_\x0cs\x04u"\x12\xcb\xbd\x9bO\x08b\xb4A'
p1184
ssS'_usr_local_lib_python2_7_dist-packages_cryptography_hazmat_bindings_openssl_rand'
p1185
(dp1186
g6
(dp1187
g8
S'_usr_local_lib_python2_7_dist-packages_cryptography_hazmat_bindings_openssl_rand.html'
p1188
sg10
S'/usr/local/lib/python2.7/dist-packages/cryptography/hazmat/bindings/openssl/rand'
p1189
sg12
g13
(g14
g15
NtRp1190
(dp1191
g18
I1
sg19
I0
sg20
I7
sg21
I0
sg22
I0
sg23
I0
sg24
I0
sbssg25
S'\x0bv \x7f\xb4/\xe0+G6\xf6\xa5\x87i0N'
p1192
ssS'helpers_encryption'
p1193
(dp1194
g6
(dp1195
g8
S'helpers_encryption.html'
p1196
sg10
S'helpers/encryption'
p1197
sg12
g13
(g14
g15
NtRp1198
(dp1199
g18
I1
sg19
I0
sg20
I31
sg21
I0
sg22
I0
sg23
I23
sg24
I0
sbssg25
S'\x1d\\\xf0\xcb\xbf\xd2\xc1n\xdc\xed\x8b\xe3\x81wh\x95'
p1200
ssS'_usr_local_lib_python2_7_dist-packages_requests_packages_urllib3_util_response'
p1201
(dp1202
g6
(dp1203
g8
S'_usr_local_lib_python2_7_dist-packages_requests_packages_urllib3_util_response.html'
p1204
sg10
S'/usr/local/lib/python2.7/dist-packages/requests/packages/urllib3/util/response'
p1205
sg12
g13
(g14
g15
NtRp1206
(dp1207
g18
I1
sg19
I0
sg20
I10
sg21
I0
sg22
I0
sg23
I9
sg24
I0
sbssg25
S'\xb8&\x19A\xa2\xc8\xb8\x12\x86^\xe9\x96hg\xab\xb2'
p1208
ssS'_usr_local_lib_python2_7_dist-packages_riak_datatypes_register'
p1209
(dp1210
g6
(dp1211
g8
S'_usr_local_lib_python2_7_dist-packages_riak_datatypes_register.html'
p1212
sg10
S'/usr/local/lib/python2.7/dist-packages/riak/datatypes/register'
p1213
sg12
g13
(g14
g15
NtRp1214
(dp1215
g18
I1
sg19
I0
sg20
I26
sg21
I0
sg22
I0
sg23
I10
sg24
I0
sbssg25
S'\x00qS7[\x84\x8d\x13\xd7\xedl\xd5\xd3Yi\xfd'
p1216
ssS'_usr_local_lib_python2_7_dist-packages_nose_importer'
p1217
(dp1218
g6
(dp1219
g8
S'_usr_local_lib_python2_7_dist-packages_nose_importer.html'
p1220
sg10
S'/usr/local/lib/python2.7/dist-packages/nose/importer'
p1221
sg12
g13
(g14
g15
NtRp1222
(dp1223
g18
I1
sg19
I0
sg20
I101
sg21
I0
sg22
I0
sg23
I32
sg24
I0
sbssg25
S'X0\x89"=\xce\x19\xde\xe0}\xcb\xfcF\x1fU\xda'
p1224
ssS'_usr_local_lib_python2_7_dist-packages_cryptography___init__'
p1225
(dp1226
g6
(dp1227
g8
S'_usr_local_lib_python2_7_dist-packages_cryptography___init__.html'
p1228
sg10
S'/usr/local/lib/python2.7/dist-packages/cryptography/__init__'
p1229
sg12
g13
(g14
g15
NtRp1230
(dp1231
g18
I1
sg19
I0
sg20
I3
sg21
I0
sg22
I0
sg23
I0
sg24
I0
sbssg25
S'\xc2\xa2Z\x08\xe1\xf9\n\xfft\x1b\x99B\xdf\x18\xdc\x92'
p1232
ssS'_usr_local_lib_python2_7_dist-packages_riak_datatypes_counter'
p1233
(dp1234
g6
(dp1235
g8
S'_usr_local_lib_python2_7_dist-packages_riak_datatypes_counter.html'
p1236
sg10
S'/usr/local/lib/python2.7/dist-packages/riak/datatypes/counter'
p1237
sg12
g13
(g14
g15
NtRp1238
(dp1239
g18
I1
sg19
I0
sg20
I23
sg21
I0
sg22
I0
sg23
I10
sg24
I0
sbssg25
S'6\x059\x91\x8f\r\xc3G\xa6\x15\x00\x9ce\xb3\x8c\xd2'
p1240
ssS'_usr_local_lib_python2_7_dist-packages_riak_client___init__'
p1241
(dp1242
g6
(dp1243
g8
S'_usr_local_lib_python2_7_dist-packages_riak_client___init__.html'
p1244
sg10
S'/usr/local/lib/python2.7/dist-packages/riak/client/__init__'
p1245
sg12
g13
(g14
g15
NtRp1246
(dp1247
g18
I1
sg19
I0
sg20
I141
sg21
I0
sg22
I0
sg23
I72
sg24
I0
sbssg25
S'\xe5\xe1\xbd\xbe$\xcd\xb5H\xe1~F+\x8at\x83\xa4'
p1248
ssS'_usr_local_lib_python2_7_dist-packages_flask_exthook'
p1249
(dp1250
g6
(dp1251
g8
S'_usr_local_lib_python2_7_dist-packages_flask_exthook.html'
p1252
sg10
S'/usr/local/lib/python2.7/dist-packages/flask/exthook'
p1253
sg12
g13
(g14
g15
NtRp1254
(dp1255
g18
I1
sg19
I0
sg20
I54
sg21
I0
sg22
I0
sg23
I23
sg24
I0
sbssg25
S'\x08\x89C\xc9*\xa0\x9a\xa6\xa1\x875\xe3\xb7R\x18z'
p1256
ssS'_usr_local_lib_python2_7_dist-packages_requests_api'
p1257
(dp1258
g6
(dp1259
g8
S'_usr_local_lib_python2_7_dist-packages_requests_api.html'
p1260
sg10
S'/usr/local/lib/python2.7/dist-packages/requests/api'
p1261
sg12
g13
(g14
g15
NtRp1262
(dp1263
g18
I1
sg19
I0
sg20
I24
sg21
I0
sg22
I0
sg23
I14
sg24
I0
sbssg25
S'\xa1\x16\x94Y\xdd\x08\n\x17\x8e\xe6\x7f\x1c\xe1\xb0Ds'
p1264
ssS'_usr_local_lib_python2_7_dist-packages_urllib3_packages_ssl_match_hostname___init__'
p1265
(dp1266
g6
(dp1267
g8
S'_usr_local_lib_python2_7_dist-packages_urllib3_packages_ssl_match_hostname___init__.html'
p1268
sg10
S'/usr/local/lib/python2.7/dist-packages/urllib3/packages/ssl_match_hostname/__init__'
p1269
sg12
g13
(g14
g15
NtRp1270
(dp1271
g18
I1
sg19
I0
sg20
I8
sg21
I0
sg22
I0
sg23
I5
sg24
I0
sbssg25
S"\x96\xe2\xee\xfc\x80\x90\x18G^\xaa\xc6\x9b='p/"
p1272
ssS'_usr_local_lib_python2_7_dist-packages_riak_pb___init__'
p1273
(dp1274
g6
(dp1275
g8
S'_usr_local_lib_python2_7_dist-packages_riak_pb___init__.html'
p1276
sg10
S'/usr/local/lib/python2.7/dist-packages/riak_pb/__init__'
p1277
sg12
g13
(g14
g15
NtRp1278
(dp1279
g18
I1
sg19
I0
sg20
I5
sg21
I0
sg22
I0
sg23
I0
sg24
I0
sbssg25
S'\x03\xfb\xa5.]\xf5\x99\x99\x01`\xbf\xa0\xcf\x13\x9f\x95'
p1280
ssS'_usr_local_lib_python2_7_dist-packages_pytz_exceptions'
p1281
(dp1282
g6
(dp1283
g8
S'_usr_local_lib_python2_7_dist-packages_pytz_exceptions.html'
p1284
sg10
S'/usr/local/lib/python2.7/dist-packages/pytz/exceptions'
p1285
sg12
g13
(g14
g15
NtRp1286
(dp1287
g18
I1
sg19
I0
sg20
I6
sg21
I0
sg22
I0
sg23
I0
sg24
I0
sbssg25
S'\xb1z\nA\xebV\xdewl2\xcd\xec\xd1\xf4\xf1g'
p1288
ssS'_usr_local_lib_python2_7_dist-packages_google_protobuf_internal_encoder'
p1289
(dp1290
g6
(dp1291
g8
S'_usr_local_lib_python2_7_dist-packages_google_protobuf_internal_encoder.html'
p1292
sg10
S'/usr/local/lib/python2.7/dist-packages/google/protobuf/internal/encoder'
p1293
sg12
g13
(g14
g15
NtRp1294
(dp1295
g18
I1
sg19
I0
sg20
I453
sg21
I0
sg22
I0
sg23
I269
sg24
I0
sbssg25
S'@Sw\xdf1\x02\x10\xb4Z\x99R\xafK$\x11\xe5'
p1296
ssS'_usr_local_lib_python2_7_dist-packages_urllib3_util_retry'
p1297
(dp1298
g6
(dp1299
g8
S'_usr_local_lib_python2_7_dist-packages_urllib3_util_retry.html'
p1300
sg10
S'/usr/local/lib/python2.7/dist-packages/urllib3/util/retry'
p1301
sg12
g13
(g14
g15
NtRp1302
(dp1303
g18
I1
sg19
I0
sg20
I98
sg21
I0
sg22
I0
sg23
I67
sg24
I0
sbssg25
S'\xa4\xeaw\x98\xc8\xae\r\xad\xb9\xf1?\xe0^\xe5\x1a '
p1304
ssS'_usr_local_lib_python2_7_dist-packages_requests_packages_urllib3_packages_ssl_match_hostname___init__'
p1305
(dp1306
g6
(dp1307
g8
S'_usr_local_lib_python2_7_dist-packages_requests_packages_urllib3_packages_ssl_match_hostname___init__.html'
p1308
sg10
S'/usr/local/lib/python2.7/dist-packages/requests/packages/urllib3/packages/ssl_match_hostname/__init__'
p1309
sg12
g13
(g14
g15
NtRp1310
(dp1311
g18
I1
sg19
I0
sg20
I8
sg21
I0
sg22
I0
sg23
I5
sg24
I0
sbssg25
S"\x96\xe2\xee\xfc\x80\x90\x18G^\xaa\xc6\x9b='p/"
p1312
ssS'_usr_local_lib_python2_7_dist-packages_cryptography_hazmat_bindings_openssl_bio'
p1313
(dp1314
g6
(dp1315
g8
S'_usr_local_lib_python2_7_dist-packages_cryptography_hazmat_bindings_openssl_bio.html'
p1316
sg10
S'/usr/local/lib/python2.7/dist-packages/cryptography/hazmat/bindings/openssl/bio'
p1317
sg12
g13
(g14
g15
NtRp1318
(dp1319
g18
I1
sg19
I0
sg20
I7
sg21
I0
sg22
I0
sg23
I0
sg24
I0
sbssg25
S'\x07\xd31xz\xfc\x9e\x95\xf7\xfeQ\x85\xce\xd2\xad\x05'
p1320
ssS'_usr_local_lib_python2_7_dist-packages_riak_transports_transport'
p1321
(dp1322
g6
(dp1323
g8
S'_usr_local_lib_python2_7_dist-packages_riak_transports_transport.html'
p1324
sg10
S'/usr/local/lib/python2.7/dist-packages/riak/transports/transport'
p1325
sg12
g13
(g14
g15
NtRp1326
(dp1327
g18
I1
sg19
I0
sg20
I119
sg21
I0
sg22
I0
sg23
I69
sg24
I0
sbssg25
S'\x8aR,\x9aCp1\x1d`t\xc6I\xc9\xdf\xe0X'
p1328
ssS'_usr_local_lib_python2_7_dist-packages_itsdangerous'
p1329
(dp1330
g6
(dp1331
g8
S'_usr_local_lib_python2_7_dist-packages_itsdangerous.html'
p1332
sg10
S'/usr/local/lib/python2.7/dist-packages/itsdangerous'
p1333
sg12
g13
(g14
g15
NtRp1334
(dp1335
g18
I1
sg19
I0
sg20
I413
sg21
I0
sg22
I0
sg23
I293
sg24
I0
sbssg25
S'`M\xf3d\xd8Y\x103\x8e\xe2\xe0\x84\xa8\x93p\xd8'
p1336
ssS'_usr_local_lib_python2_7_dist-packages_cryptography_hazmat_bindings___init__'
p1337
(dp1338
g6
(dp1339
g8
S'_usr_local_lib_python2_7_dist-packages_cryptography_hazmat_bindings___init__.html'
p1340
sg10
S'/usr/local/lib/python2.7/dist-packages/cryptography/hazmat/bindings/__init__'
p1341
sg12
g13
(g14
g15
NtRp1342
(dp1343
g18
I1
sg19
I0
sg20
I1
sg21
I0
sg22
I0
sg23
I0
sg24
I0
sbssg25
S'\xcc\xde-"\x7f\x11\x14\xb1\xf8\xef\xe1\xcc{\xc8M$'
p1344
ssS'_usr_local_lib_python2_7_dist-packages_flask_ext___init__'
p1345
(dp1346
g6
(dp1347
g8
S'_usr_local_lib_python2_7_dist-packages_flask_ext___init__.html'
p1348
sg10
S'/usr/local/lib/python2.7/dist-packages/flask/ext/__init__'
p1349
sg12
g13
(g14
g15
NtRp1350
(dp1351
g18
I1
sg19
I0
sg20
I7
sg21
I0
sg22
I0
sg23
I0
sg24
I0
sbssg25
S'\xc7\xd4\x92\x9b\xb0\xb4h\xf1Rs\xd6\xf8vw\xdd\x07'
p1352
ssS'_usr_local_lib_python2_7_dist-packages_requests_exceptions'
p1353
(dp1354
g6
(dp1355
g8
S'_usr_local_lib_python2_7_dist-packages_requests_exceptions.html'
p1356
sg10
S'/usr/local/lib/python2.7/dist-packages/requests/exceptions'
p1357
sg12
g13
(g14
g15
NtRp1358
(dp1359
g18
I1
sg19
I0
sg20
I26
sg21
I0
sg22
I0
sg23
I6
sg24
I0
sbssg25
S'\x06S1\xe3L\xaa\xe2\xf8\xbe\xec\xc6\x10\xbdg\xc1\x9a'
p1360
ssS'_usr_local_lib_python2_7_dist-packages_google_protobuf_text_format'
p1361
(dp1362
g6
(dp1363
g8
S'_usr_local_lib_python2_7_dist-packages_google_protobuf_text_format.html'
p1364
sg10
S'/usr/local/lib/python2.7/dist-packages/google/protobuf/text_format'
p1365
sg12
g13
(g14
g15
NtRp1366
(dp1367
g18
I1
sg19
I0
sg20
I345
sg21
I0
sg22
I0
sg23
I294
sg24
I0
sbssg25
S'9\xa0\x8c\xdfy\x83\n"\xef\xc8\x07\xa0\xae\xbf:\xd9'
p1368
ssS'_usr_local_lib_python2_7_dist-packages_google_protobuf_descriptor'
p1369
(dp1370
g6
(dp1371
g8
S'_usr_local_lib_python2_7_dist-packages_google_protobuf_descriptor.html'
p1372
sg10
S'/usr/local/lib/python2.7/dist-packages/google/protobuf/descriptor'
p1373
sg12
g13
(g14
g15
NtRp1374
(dp1375
g18
I1
sg19
I0
sg20
I207
sg21
I0
sg22
I0
sg23
I67
sg24
I0
sbssg25
S'\xdeJ\x17\x7f)\xe4\xc7\x0cd\x0eH\x9ea\x8fa\xb6'
p1376
ssS'_usr_local_lib_python2_7_dist-packages_nose_plugins_skip'
p1377
(dp1378
g6
(dp1379
g8
S'_usr_local_lib_python2_7_dist-packages_nose_plugins_skip.html'
p1380
sg10
S'/usr/local/lib/python2.7/dist-packages/nose/plugins/skip'
p1381
sg12
g13
(g14
g15
NtRp1382
(dp1383
g18
I1
sg19
I0
sg20
I22
sg21
I0
sg22
I0
sg23
I18
sg24
I0
sbssg25
S'\x9f\xe9\x97\x1dQ\n\x93q\xc13U\xf5tV\xf21'
p1384
ssS'helpers___init__'
p1385
(dp1386
g6
(dp1387
g8
S'helpers___init__.html'
p1388
sg10
S'helpers/__init__'
p1389
sg12
g13
(g14
g15
NtRp1390
(dp1391
g18
I1
sg19
I0
sg20
I2
sg21
I0
sg22
I0
sg23
I0
sg24
I0
sbssg25
S'\xe2\x14\xcc>\xa2\xd6\xf27sH\x8e\xba[\x0bG\xd0'
p1392
ssS'_usr_local_lib_python2_7_dist-packages_urllib3__collections'
p1393
(dp1394
g6
(dp1395
g8
S'_usr_local_lib_python2_7_dist-packages_urllib3__collections.html'
p1396
sg10
S'/usr/local/lib/python2.7/dist-packages/urllib3/_collections'
p1397
sg12
g13
(g14
g15
NtRp1398
(dp1399
g18
I1
sg19
I0
sg20
I175
sg21
I0
sg22
I0
sg23
I121
sg24
I0
sbssg25
S'E\x0cmV\x1a\x13@\xb3\xff\xd1%\xc8a\xc9z\xc5'
p1400
ssS'_usr_local_lib_python2_7_dist-packages_jinja2_utils'
p1401
(dp1402
g6
(dp1403
g8
S'_usr_local_lib_python2_7_dist-packages_jinja2_utils.html'
p1404
sg10
S'/usr/local/lib/python2.7/dist-packages/jinja2/utils'
p1405
sg12
g13
(g14
g15
NtRp1406
(dp1407
g18
I1
sg19
I0
sg20
I263
sg21
I0
sg22
I0
sg23
I185
sg24
I0
sbssg25
S'\x17\xe9g\x81:\x8a\x99\x91\xd9m"\x87$\x91\x08\x1a'
p1408
ssS'_usr_local_lib_python2_7_dist-packages_riak_datatypes_set'
p1409
(dp1410
g6
(dp1411
g8
S'_usr_local_lib_python2_7_dist-packages_riak_datatypes_set.html'
p1412
sg10
S'/usr/local/lib/python2.7/dist-packages/riak/datatypes/set'
p1413
sg12
g13
(g14
g15
NtRp1414
(dp1415
g18
I1
sg19
I0
sg20
I50
sg21
I0
sg22
I0
sg23
I29
sg24
I0
sbssg25
S'\x08\xe0-Y\x9dX\x17R\xbb\xbf\xda\xf8\x10\xf2Y3'
p1416
ssS'index_from_postgres'
p1417
(dp1418
g6
(dp1419
g8
S'index_from_postgres.html'
p1420
sg10
g1417
sg12
g13
(g14
g15
NtRp1421
(dp1422
g18
I1
sg19
I0
sg20
I157
sg21
I0
sg22
I0
sg23
I130
sg24
I0
sbssg25
S'. Z\x1f\xb7\xc4.p9\xc7\t\x10\xb7\x85\x92\xd1'
p1423
ssS'_usr_local_lib_python2_7_dist-packages_nose_plugins_base'
p1424
(dp1425
g6
(dp1426
g8
S'_usr_local_lib_python2_7_dist-packages_nose_plugins_base.html'
p1427
sg10
S'/usr/local/lib/python2.7/dist-packages/nose/plugins/base'
p1428
sg12
g13
(g14
g15
NtRp1429
(dp1430
g18
I1
sg19
I0
sg20
I195
sg21
I0
sg22
I0
sg23
I191
sg24
I0
sbssg25
S'\xb6\x92\xf8\x82\xe6JzW\xef\x93\xee\x13\x94\xcf5\x8c'
p1431
ssS'_usr_local_lib_python2_7_dist-packages_riak_client_operations'
p1432
(dp1433
g6
(dp1434
g8
S'_usr_local_lib_python2_7_dist-packages_riak_client_operations.html'
p1435
sg10
S'/usr/local/lib/python2.7/dist-packages/riak/client/operations'
p1436
sg12
g13
(g14
g15
NtRp1437
(dp1438
g18
I1
sg19
I0
sg20
I169
sg21
I0
sg22
I0
sg23
I115
sg24
I0
sbssg25
S'\x7f4\xc2_\xdb\x8c\xc1\xd6\xf9s\x96^(\x85F\xe2'
p1439
ssS'_usr_local_lib_python2_7_dist-packages_cryptography_hazmat___init__'
p1440
(dp1441
g6
(dp1442
g8
S'_usr_local_lib_python2_7_dist-packages_cryptography_hazmat___init__.html'
p1443
sg10
S'/usr/local/lib/python2.7/dist-packages/cryptography/hazmat/__init__'
p1444
sg12
g13
(g14
g15
NtRp1445
(dp1446
g18
I1
sg19
I0
sg20
I1
sg21
I0
sg22
I0
sg23
I0
sg24
I0
sbssg25
S'\xcc\xde-"\x7f\x11\x14\xb1\xf8\xef\xe1\xcc{\xc8M$'
p1447
ssS'_usr_local_lib_python2_7_dist-packages_elasticsearch_serializer'
p1448
(dp1449
g6
(dp1450
g8
S'_usr_local_lib_python2_7_dist-packages_elasticsearch_serializer.html'
p1451
sg10
S'/usr/local/lib/python2.7/dist-packages/elasticsearch/serializer'
p1452
sg12
g13
(g14
g15
NtRp1453
(dp1454
g18
I1
sg19
I0
sg20
I53
sg21
I0
sg22
I0
sg23
I32
sg24
I0
sbssg25
S'(\x91{\x9b\r\xc7\xf3\xc5\x04\xa9\xf4\xda\xdbv7\xdd'
p1455
ssS'_usr_local_lib_python2_7_dist-packages_riak_transports___init__'
p1456
(dp1457
g6
(dp1458
g8
S'_usr_local_lib_python2_7_dist-packages_riak_transports___init__.html'
p1459
sg10
S'/usr/local/lib/python2.7/dist-packages/riak/transports/__init__'
p1460
sg12
g13
(g14
g15
NtRp1461
(dp1462
g18
I1
sg19
I0
sg20
I0
sg21
I0
sg22
I0
sg23
I0
sg24
I0
sbssg25
S'\xca\xf5\x9f\x7f\x88\xdfa\x831|T\x1d\xbc}\xa5v'
p1463
ssS'_usr_local_lib_python2_7_dist-packages_flask_sessions'
p1464
(dp1465
g6
(dp1466
g8
S'_usr_local_lib_python2_7_dist-packages_flask_sessions.html'
p1467
sg10
S'/usr/local/lib/python2.7/dist-packages/flask/sessions'
p1468
sg12
g13
(g14
g15
NtRp1469
(dp1470
g18
I1
sg19
I0
sg20
I143
sg21
I0
sg22
I0
sg23
I83
sg24
I0
sbssg25
S"\xe1%\xd1D\xf5]\xdbE\xa3P\xeb8',\xc0\xae"
p1471
ssS'corrections_record_corrector'
p1472
(dp1473
g6
(dp1474
g8
S'corrections_record_corrector.html'
p1475
sg10
S'corrections/record_corrector'
p1476
sg12
g13
(g14
g15
NtRp1477
(dp1478
g18
I1
sg19
I0
sg20
I48
sg21
I0
sg22
I0
sg23
I41
sg24
I0
sbssg25
S'\xe4\x0c\xe8LH!\n\x89\x0e\n5\xaa\xc3\xd5\x85\xe3'
p1479
ssS'_usr_local_lib_python2_7_dist-packages_requests_models'
p1480
(dp1481
g6
(dp1482
g8
S'_usr_local_lib_python2_7_dist-packages_requests_models.html'
p1483
sg10
S'/usr/local/lib/python2.7/dist-packages/requests/models'
p1484
sg12
g13
(g14
g15
NtRp1485
(dp1486
g18
I1
sg19
I0
sg20
I403
sg21
I0
sg22
I0
sg23
I337
sg24
I0
sbssg25
S'\x00\xdf\x9fcu\xa8\x11\xf8\xcc3V\xea[\xc0\xa6V'
p1487
ssS'_usr_local_lib_python2_7_dist-packages_requests_packages_urllib3_connectionpool'
p1488
(dp1489
g6
(dp1490
g8
S'_usr_local_lib_python2_7_dist-packages_requests_packages_urllib3_connectionpool.html'
p1491
sg10
S'/usr/local/lib/python2.7/dist-packages/requests/packages/urllib3/connectionpool'
p1492
sg12
g13
(g14
g15
NtRp1493
(dp1494
g18
I1
sg19
I0
sg20
I280
sg21
I0
sg22
I0
sg23
I223
sg24
I0
sbssg25
S'eoR\x8a>\x07+T\xe7\x8a\x9b\xee\xa9\xb4B\x91'
p1495
ssS'_usr_local_lib_python2_7_dist-packages_riak_transports_pbc_transport'
p1496
(dp1497
g6
(dp1498
g8
S'_usr_local_lib_python2_7_dist-packages_riak_transports_pbc_transport.html'
p1499
sg10
S'/usr/local/lib/python2.7/dist-packages/riak/transports/pbc/transport'
p1500
sg12
g13
(g14
g15
NtRp1501
(dp1502
g18
I1
sg19
I0
sg20
I375
sg21
I0
sg22
I0
sg23
I330
sg24
I0
sbssg25
S'\xa9u\x0f\x8b\xb9\x91\x91\xe2r\xe2G\x0e\xc3\x80\xb2\xa9'
p1503
ssS'_usr_local_lib_python2_7_dist-packages_riak_pb_riak_dt_pb2'
p1504
(dp1505
g6
(dp1506
g8
S'_usr_local_lib_python2_7_dist-packages_riak_pb_riak_dt_pb2.html'
p1507
sg10
S'/usr/local/lib/python2.7/dist-packages/riak_pb/riak_dt_pb2'
p1508
sg12
g13
(g14
g15
NtRp1509
(dp1510
g18
I1
sg19
I0
sg20
I91
sg21
I0
sg22
I0
sg23
I0
sg24
I0
sbssg25
S'\xc6\xb2}.\xee8\x91\xce\xbb\x08\xf3\x17V\xb2_\x95'
p1511
ssS'_usr_local_lib_python2_7_dist-packages_riak_pb_riak_pb2'
p1512
(dp1513
g6
(dp1514
g8
S'_usr_local_lib_python2_7_dist-packages_riak_pb_riak_pb2.html'
p1515
sg10
S'/usr/local/lib/python2.7/dist-packages/riak_pb/riak_pb2'
p1516
sg12
g13
(g14
g15
NtRp1517
(dp1518
g18
I1
sg19
I0
sg20
I83
sg21
I0
sg22
I0
sg23
I0
sg24
I0
sbssg25
S'\x94\xc1\x00\xe7\xc3\xd9\x99\x03G\xa1k\xe9\xac=o\x81'
p1519
ssS'_usr_local_lib_python2_7_dist-packages_requests_packages_urllib3_connection'
p1520
(dp1521
g6
(dp1522
g8
S'_usr_local_lib_python2_7_dist-packages_requests_packages_urllib3_connection.html'
p1523
sg10
S'/usr/local/lib/python2.7/dist-packages/requests/packages/urllib3/connection'
p1524
sg12
g13
(g14
g15
NtRp1525
(dp1526
g18
I1
sg19
I0
sg20
I110
sg21
I0
sg22
I0
sg23
I61
sg24
I0
sbssg25
S'\xa3\x8c.\xbai\x7f\rF\xc2\x9e\x119\x07\x9aF\x95'
p1527
ssS'_usr_local_lib_python2_7_dist-packages_nose_plugins_debug'
p1528
(dp1529
g6
(dp1530
g8
S'_usr_local_lib_python2_7_dist-packages_nose_plugins_debug.html'
p1531
sg10
S'/usr/local/lib/python2.7/dist-packages/nose/plugins/debug'
p1532
sg12
g13
(g14
g15
NtRp1533
(dp1534
g18
I1
sg19
I0
sg20
I31
sg21
I0
sg22
I0
sg23
I27
sg24
I0
sbssg25
S'\xe5\xf4%\xf6VwY\xacKk\x94m\xbb\x9a\x90h'
p1535
ssS'_usr_local_lib_python2_7_dist-packages_urllib3_packages___init__'
p1536
(dp1537
g6
(dp1538
g8
S'_usr_local_lib_python2_7_dist-packages_urllib3_packages___init__.html'
p1539
sg10
S'/usr/local/lib/python2.7/dist-packages/urllib3/packages/__init__'
p1540
sg12
g13
(g14
g15
NtRp1541
(dp1542
g18
I1
sg19
I0
sg20
I2
sg21
I0
sg22
I0
sg23
I0
sg24
I0
sbssg25
S'm\xe6C\xc6\x82|\xf7\xbc\xe7R\xb6\xe3\x03Bg\x11'
p1543
ssS'_usr_local_lib_python2_7_dist-packages_flask_debughelpers'
p1544
(dp1545
g6
(dp1546
g8
S'_usr_local_lib_python2_7_dist-packages_flask_debughelpers.html'
p1547
sg10
S'/usr/local/lib/python2.7/dist-packages/flask/debughelpers'
p1548
sg12
g13
(g14
g15
NtRp1549
(dp1550
g18
I1
sg19
I0
sg20
I35
sg21
I0
sg22
I0
sg23
I25
sg24
I0
sbssg25
S'\xb1\x83\xab\xaa\xfbi\x87\xe1\x0515\x06\xb8\xe5\xcd\xa5'
p1551
ssS'_usr_local_lib_python2_7_dist-packages_urllib3_request'
p1552
(dp1553
g6
(dp1554
g8
S'_usr_local_lib_python2_7_dist-packages_urllib3_request.html'
p1555
sg10
S'/usr/local/lib/python2.7/dist-packages/urllib3/request'
p1556
sg12
g13
(g14
g15
NtRp1557
(dp1558
g18
I1
sg19
I0
sg20
I36
sg21
I0
sg22
I0
sg23
I23
sg24
I0
sbssg25
S'V\xa0\x83\x07YZ\x85\xd1\xeb-\x95\xfc$@/\xc6'
p1559
ssS'data_tables_locality_data'
p1560
(dp1561
g6
(dp1562
g8
S'data_tables_locality_data.html'
p1563
sg10
S'data_tables/locality_data'
p1564
sg12
g13
(g14
g15
NtRp1565
(dp1566
g18
I1
sg19
I0
sg20
I19
sg21
I0
sg22
I0
sg23
I2
sg24
I0
sbssg25
S'\n\xd0\xfb\x912c\xfe>W\xf0!\x07\xf6\xfe\xb8\x94'
p1567
ssS'_usr_local_lib_python2_7_dist-packages_cryptography_hazmat_bindings_openssl_x509_vfy'
p1568
(dp1569
g6
(dp1570
g8
S'_usr_local_lib_python2_7_dist-packages_cryptography_hazmat_bindings_openssl_x509_vfy.html'
p1571
sg10
S'/usr/local/lib/python2.7/dist-packages/cryptography/hazmat/bindings/openssl/x509_vfy'
p1572
sg12
g13
(g14
g15
NtRp1573
(dp1574
g18
I1
sg19
I0
sg20
I7
sg21
I0
sg22
I0
sg23
I0
sg24
I0
sbssg25
S'a\xbf"\xef\n\x87\x1a\x9fb\xbcA\x88\x04}\xfbE'
p1575
ssS'_usr_local_lib_python2_7_dist-packages_elasticsearch_connection_esthrift_Rest'
p1576
(dp1577
g6
(dp1578
g8
S'_usr_local_lib_python2_7_dist-packages_elasticsearch_connection_esthrift_Rest.html'
p1579
sg10
S'/usr/local/lib/python2.7/dist-packages/elasticsearch/connection/esthrift/Rest'
p1580
sg12
g13
(g14
g15
NtRp1581
(dp1582
g18
I1
sg19
I0
sg20
I153
sg21
I0
sg22
I0
sg23
I152
sg24
I0
sbssg25
S'\xe8\x96\xdeM\x85W\xce\xe1r\xc6\xac\xcf\xf3vx\x07'
p1583
ssS'_usr_local_lib_python2_7_dist-packages_riak_transports_http_search'
p1584
(dp1585
g6
(dp1586
g8
S'_usr_local_lib_python2_7_dist-packages_riak_transports_http_search.html'
p1587
sg10
S'/usr/local/lib/python2.7/dist-packages/riak/transports/http/search'
p1588
sg12
g13
(g14
g15
NtRp1589
(dp1590
g18
I1
sg19
I0
sg20
I35
sg21
I0
sg22
I0
sg23
I28
sg24
I0
sbssg25
S'\xbf)\xa83C\xbe1ey\xed\\\x1b\xdc\xaf\x18\xb1'
p1591
ssS'_usr_local_lib_python2_7_dist-packages_requests_structures'
p1592
(dp1593
g6
(dp1594
g8
S'_usr_local_lib_python2_7_dist-packages_requests_structures.html'
p1595
sg10
S'/usr/local/lib/python2.7/dist-packages/requests/structures'
p1596
sg12
g13
(g14
g15
NtRp1597
(dp1598
g18
I1
sg19
I0
sg20
I39
sg21
I0
sg22
I0
sg23
I15
sg24
I0
sbssg25
S'\xfe\x96\x05;\xb7\xecc\xe7\xddr\xf2|Nx\x9b\xd5'
p1599
ssS'helpers_etags'
p1600
(dp1601
g6
(dp1602
g8
S'helpers_etags.html'
p1603
sg10
S'helpers/etags'
p1604
sg12
g13
(g14
g15
NtRp1605
(dp1606
g18
I1
sg19
I0
sg20
I43
sg21
I0
sg22
I0
sg23
I38
sg24
I0
sbssg25
S'C\xc1\xc4O\xda\xa7\xb2\xff\x91|b\xd0\xf5\xce\x9aI'
p1607
ssS'_usr_local_lib_python2_7_dist-packages_cryptography_hazmat_bindings_openssl_pem'
p1608
(dp1609
g6
(dp1610
g8
S'_usr_local_lib_python2_7_dist-packages_cryptography_hazmat_bindings_openssl_pem.html'
p1611
sg10
S'/usr/local/lib/python2.7/dist-packages/cryptography/hazmat/bindings/openssl/pem'
p1612
sg12
g13
(g14
g15
NtRp1613
(dp1614
g18
I1
sg19
I0
sg20
I7
sg21
I0
sg22
I0
sg23
I0
sg24
I0
sbssg25
S'\x02T\xd1!\xd9!9=rI\xd1\xc4\xe4\x16/\xe4'
p1615
ssS'_usr_local_lib_python2_7_dist-packages_pytz_tzinfo'
p1616
(dp1617
g6
(dp1618
g8
S'_usr_local_lib_python2_7_dist-packages_pytz_tzinfo.html'
p1619
sg10
S'/usr/local/lib/python2.7/dist-packages/pytz/tzinfo'
p1620
sg12
g13
(g14
g15
NtRp1621
(dp1622
g18
I1
sg19
I0
sg20
I178
sg21
I0
sg22
I0
sg23
I104
sg24
I0
sbssg25
S"E\xbeE\x8f\xc3\xc94'i\nMK\xb4)I\x8f"
p1623
ssS'_usr_local_lib_python2_7_dist-packages_nose_plugins_manager'
p1624
(dp1625
g6
(dp1626
g8
S'_usr_local_lib_python2_7_dist-packages_nose_plugins_manager.html'
p1627
sg10
S'/usr/local/lib/python2.7/dist-packages/nose/plugins/manager'
p1628
sg12
g13
(g14
g15
NtRp1629
(dp1630
g18
I1
sg19
I0
sg20
I265
sg21
I0
sg22
I0
sg23
I216
sg24
I0
sbssg25
S'\xed\xc2\xf5\x83A\xaf\xa6\xd5\x89\x8fZ\xae\xfe\xc6\xb5\xbe'
p1631
ssS'_usr_local_lib_python2_7_dist-packages_riak_pb_riak_yokozuna_pb2'
p1632
(dp1633
g6
(dp1634
g8
S'_usr_local_lib_python2_7_dist-packages_riak_pb_riak_yokozuna_pb2.html'
p1635
sg10
S'/usr/local/lib/python2.7/dist-packages/riak_pb/riak_yokozuna_pb2'
p1636
sg12
g13
(g14
g15
NtRp1637
(dp1638
g18
I1
sg19
I0
sg20
I56
sg21
I0
sg22
I0
sg23
I0
sg24
I0
sbssg25
S'\x9f\x81\xeb\xaf\xa8h\x13A\x18c\xfd\x83\x95\xd9\x9eX'
p1639
ssS'_usr_local_lib_python2_7_dist-packages_nose_failure'
p1640
(dp1641
g6
(dp1642
g8
S'_usr_local_lib_python2_7_dist-packages_nose_failure.html'
p1643
sg10
S'/usr/local/lib/python2.7/dist-packages/nose/failure'
p1644
sg12
g13
(g14
g15
NtRp1645
(dp1646
g18
I1
sg19
I0
sg20
I25
sg21
I0
sg22
I0
sg23
I15
sg24
I0
sbssg25
S'\x9e\xea!\xe6J\x9d\xa8\xee\x94\xc8\x12t\x03\xa2t\xbc'
p1647
ssS'_usr_local_lib_python2_7_dist-packages_riak_client_index_page'
p1648
(dp1649
g6
(dp1650
g8
S'_usr_local_lib_python2_7_dist-packages_riak_client_index_page.html'
p1651
sg10
S'/usr/local/lib/python2.7/dist-packages/riak/client/index_page'
p1652
sg12
g13
(g14
g15
NtRp1653
(dp1654
g18
I1
sg19
I0
sg20
I67
sg21
I0
sg22
I0
sg23
I50
sg24
I0
sbssg25
S'?)\xda\xdd\xb3\x12\xfe\x0eC\x1fBB+rH\xf6'
p1655
ssS'_usr_local_lib_python2_7_dist-packages_google_protobuf_internal_containers'
p1656
(dp1657
g6
(dp1658
g8
S'_usr_local_lib_python2_7_dist-packages_google_protobuf_internal_containers.html'
p1659
sg10
S'/usr/local/lib/python2.7/dist-packages/google/protobuf/internal/containers'
p1660
sg12
g13
(g14
g15
NtRp1661
(dp1662
g18
I1
sg19
I0
sg20
I117
sg21
I0
sg22
I0
sg23
I81
sg24
I0
sbssg25
S'U\x83\xe1#\xb7\xf7\x1d\x7f\xd7\xdf\xf1\x15\x0f,\xe0\x90'
p1663
ssS'_usr_local_lib_python2_7_dist-packages_google_protobuf_internal_message_listener'
p1664
(dp1665
g6
(dp1666
g8
S'_usr_local_lib_python2_7_dist-packages_google_protobuf_internal_message_listener.html'
p1667
sg10
S'/usr/local/lib/python2.7/dist-packages/google/protobuf/internal/message_listener'
p1668
sg12
g13
(g14
g15
NtRp1669
(dp1670
g18
I1
sg19
I0
sg20
I8
sg21
I0
sg22
I0
sg23
I1
sg24
I0
sbssg25
S'\xea\x05\x0b\xa5\xb2\xbb\xaa\xcb\xf1\x013\xd2].\x1d\xd1'
p1671
ssS'helpers_index_helper'
p1672
(dp1673
g6
(dp1674
g8
S'helpers_index_helper.html'
p1675
sg10
S'helpers/index_helper'
p1676
sg12
g13
(g14
g15
NtRp1677
(dp1678
g18
I1
sg19
I0
sg20
I11
sg21
I0
sg22
I0
sg23
I8
sg24
I0
sbssg25
S'\x0fb\xe1\x9a\xb1\xc8\xd5\x9e\xfd\xa6]\xa0\xa3W\xe0\xdd'
p1679
ssS'_usr_local_lib_python2_7_dist-packages_requests_cookies'
p1680
(dp1681
g6
(dp1682
g8
S'_usr_local_lib_python2_7_dist-packages_requests_cookies.html'
p1683
sg10
S'/usr/local/lib/python2.7/dist-packages/requests/cookies'
p1684
sg12
g13
(g14
g15
NtRp1685
(dp1686
g18
I1
sg19
I0
sg20
I213
sg21
I0
sg22
I0
sg23
I150
sg24
I0
sbssg25
S' \xa4,M6\x88\xe5\xf80\x82\x91\xabs\xefR\xec'
p1687
ssS'_usr_local_lib_python2_7_dist-packages_nose_selector'
p1688
(dp1689
g6
(dp1690
g8
S'_usr_local_lib_python2_7_dist-packages_nose_selector.html'
p1691
sg10
S'/usr/local/lib/python2.7/dist-packages/nose/selector'
p1692
sg12
g13
(g14
g15
NtRp1693
(dp1694
g18
I1
sg19
I0
sg20
I134
sg21
I0
sg22
I0
sg23
I53
sg24
I0
sbssg25
S'9\xd75\xd67"B\xeb\xe2\xfe\n\xde\x10&\xa4T'
p1695
ssS'_usr_local_lib_python2_7_dist-packages_urllib3_util_ssl_'
p1696
(dp1697
g6
(dp1698
g8
S'_usr_local_lib_python2_7_dist-packages_urllib3_util_ssl_.html'
p1699
sg10
S'/usr/local/lib/python2.7/dist-packages/urllib3/util/ssl_'
p1700
sg12
g13
(g14
g15
NtRp1701
(dp1702
g18
I1
sg19
I0
sg20
I112
sg21
I0
sg22
I0
sg23
I76
sg24
I0
sbssg25
S'\xacWHS\nn\x0b\xac\rC\x16\xf1\r\xa9_\x1e'
p1703
ssS'_usr_local_lib_python2_7_dist-packages_flask_signals'
p1704
(dp1705
g6
(dp1706
g8
S'_usr_local_lib_python2_7_dist-packages_flask_signals.html'
p1707
sg10
S'/usr/local/lib/python2.7/dist-packages/flask/signals'
p1708
sg12
g13
(g14
g15
NtRp1709
(dp1710
g18
I1
sg19
I0
sg20
I28
sg21
I0
sg22
I0
sg23
I2
sg24
I0
sbssg25
S'\x00\xe95\xfbqr\xe7\xe9k\xed\xaaT\xc5\xe1\xa5L'
p1711
ssS'_usr_local_lib_python2_7_dist-packages_riak_datatypes_map'
p1712
(dp1713
g6
(dp1714
g8
S'_usr_local_lib_python2_7_dist-packages_riak_datatypes_map.html'
p1715
sg10
S'/usr/local/lib/python2.7/dist-packages/riak/datatypes/map'
p1716
sg12
g13
(g14
g15
NtRp1717
(dp1718
g18
I1
sg19
I0
sg20
I99
sg21
I0
sg22
I0
sg23
I65
sg24
I0
sbssg25
S'r0/{k\xb6\xba\xd62\xe00xn\x05\xaa\x97'
p1719
ssS'_usr_local_lib_python2_7_dist-packages_urllib3_util_response'
p1720
(dp1721
g6
(dp1722
g8
S'_usr_local_lib_python2_7_dist-packages_urllib3_util_response.html'
p1723
sg10
S'/usr/local/lib/python2.7/dist-packages/urllib3/util/response'
p1724
sg12
g13
(g14
g15
NtRp1725
(dp1726
g18
I1
sg19
I0
sg20
I10
sg21
I0
sg22
I0
sg23
I9
sg24
I0
sbssg25
S'\xb8&\x19A\xa2\xc8\xb8\x12\x86^\xe9\x96hg\xab\xb2'
p1727
ssS'_usr_local_lib_python2_7_dist-packages_cryptography___about__'
p1728
(dp1729
g6
(dp1730
g8
S'_usr_local_lib_python2_7_dist-packages_cryptography___about__.html'
p1731
sg10
S'/usr/local/lib/python2.7/dist-packages/cryptography/__about__'
p1732
sg12
g13
(g14
g15
NtRp1733
(dp1734
g18
I1
sg19
I0
sg20
I10
sg21
I0
sg22
I0
sg23
I0
sg24
I0
sbssg25
S'\x01\xcaJ6\xc5\x07\xc2\x90\xee\xf4\xd5O\xaa/\x13\xcf'
p1735
ssS'_usr_local_lib_python2_7_dist-packages_requests_packages_urllib3_util___init__'
p1736
(dp1737
g6
(dp1738
g8
S'_usr_local_lib_python2_7_dist-packages_requests_packages_urllib3_util___init__.html'
p1739
sg10
S'/usr/local/lib/python2.7/dist-packages/requests/packages/urllib3/util/__init__'
p1740
sg12
g13
(g14
g15
NtRp1741
(dp1742
g18
I1
sg19
I0
sg20
I7
sg21
I0
sg22
I0
sg23
I0
sg24
I0
sbssg25
S'\x92!\xfd\x00\xa5S\xbf\x93\x83\xf3\x195\xa6+\xa1r'
p1743
ssS'_usr_local_lib_python2_7_dist-packages_elasticsearch___init__'
p1744
(dp1745
g6
(dp1746
g8
S'_usr_local_lib_python2_7_dist-packages_elasticsearch___init__.html'
p1747
sg10
S'/usr/local/lib/python2.7/dist-packages/elasticsearch/__init__'
p1748
sg12
g13
(g14
g15
NtRp1749
(dp1750
g18
I1
sg19
I0
sg20
I15
sg21
I0
sg22
I0
sg23
I0
sg24
I0
sbssg25
S'\xa3L\xfa\x94\x02Tg\x19\x0c\xc1\x80\xe3XKow'
p1751
ssS'_usr_local_lib_python2_7_dist-packages_elasticsearch_transport'
p1752
(dp1753
g6
(dp1754
g8
S'_usr_local_lib_python2_7_dist-packages_elasticsearch_transport.html'
p1755
sg10
S'/usr/local/lib/python2.7/dist-packages/elasticsearch/transport'
p1756
sg12
g13
(g14
g15
NtRp1757
(dp1758
g18
I1
sg19
I0
sg20
I140
sg21
I0
sg22
I0
sg23
I123
sg24
I0
sbssg25
S'\xc2m[\x8fjT\x03\xb2\x16\xfa\xab\xd3\xbd\x11R.'
p1759
ssS'data_api_config'
p1760
(dp1761
g6
(dp1762
g8
S'data_api_config.html'
p1763
sg10
S'data_api/config'
p1764
sg12
g13
(g14
g15
NtRp1765
(dp1766
g18
I1
sg19
I0
sg20
I5
sg21
I0
sg22
I0
sg23
I0
sg24
I0
sbssg25
S'WN|2 \xa2F\xb4\x1aL/\x10v\xa4\xed\xba'
p1767
ssS'_usr_local_lib_python2_7_dist-packages_google_protobuf_internal___init__'
p1768
(dp1769
g6
(dp1770
g8
S'_usr_local_lib_python2_7_dist-packages_google_protobuf_internal___init__.html'
p1771
sg10
S'/usr/local/lib/python2.7/dist-packages/google/protobuf/internal/__init__'
p1772
sg12
g13
(g14
g15
NtRp1773
(dp1774
g18
I1
sg19
I0
sg20
I0
sg21
I0
sg22
I0
sg23
I0
sg24
I0
sbssg25
S'\xca\xf5\x9f\x7f\x88\xdfa\x831|T\x1d\xbc}\xa5v'
p1775
ssS'_usr_local_lib_python2_7_dist-packages_riak_transports_http___init__'
p1776
(dp1777
g6
(dp1778
g8
S'_usr_local_lib_python2_7_dist-packages_riak_transports_http___init__.html'
p1779
sg10
S'/usr/local/lib/python2.7/dist-packages/riak/transports/http/__init__'
p1780
sg12
g13
(g14
g15
NtRp1781
(dp1782
g18
I1
sg19
I0
sg20
I66
sg21
I0
sg22
I0
sg23
I40
sg24
I0
sbssg25
S'\xcf\xf0}\x1f\x8c\xe3yL}\x02Q\xaa\xcb)\x1c\x10'
p1783
ssS'_usr_local_lib_python2_7_dist-packages_google_protobuf_internal_decoder'
p1784
(dp1785
g6
(dp1786
g8
S'_usr_local_lib_python2_7_dist-packages_google_protobuf_internal_decoder.html'
p1787
sg10
S'/usr/local/lib/python2.7/dist-packages/google/protobuf/internal/decoder'
p1788
sg12
g13
(g14
g15
NtRp1789
(dp1790
g18
I1
sg19
I0
sg20
I361
sg21
I0
sg22
I0
sg23
I229
sg24
I0
sbssg25
S'g\x89^\x9b:!R\xb3\xfbq\xcf\xad\xc3OT\xc0'
p1791
ssS'postgres_backend___init__'
p1792
(dp1793
g6
(dp1794
g8
S'postgres_backend___init__.html'
p1795
sg10
S'postgres_backend/__init__'
p1796
sg12
g13
(g14
g15
NtRp1797
(dp1798
g18
I1
sg19
I0
sg20
I15
sg21
I0
sg22
I0
sg23
I1
sg24
I0
sbssg25
S'\xbe\x99V-\xb7@Q\xdd|\xaeP\xff,\x10O\xdb'
p1799
ssS'_usr_local_lib_python2_7_dist-packages_cryptography_hazmat_bindings_openssl_asn1'
p1800
(dp1801
g6
(dp1802
g8
S'_usr_local_lib_python2_7_dist-packages_cryptography_hazmat_bindings_openssl_asn1.html'
p1803
sg10
S'/usr/local/lib/python2.7/dist-packages/cryptography/hazmat/bindings/openssl/asn1'
p1804
sg12
g13
(g14
g15
NtRp1805
(dp1806
g18
I1
sg19
I0
sg20
I7
sg21
I0
sg22
I0
sg23
I0
sg24
I0
sbssg25
S'\xeb\xe4\xc3\x15\x02y\xdb\x1e8e`\x95\xe4\x8e?\x9d'
p1807
ssS'_usr_local_lib_python2_7_dist-packages_riak_multidict'
p1808
(dp1809
g6
(dp1810
g8
S'_usr_local_lib_python2_7_dist-packages_riak_multidict.html'
p1811
sg10
S'/usr/local/lib/python2.7/dist-packages/riak/multidict'
p1812
sg12
g13
(g14
g15
NtRp1813
(dp1814
g18
I1
sg19
I0
sg20
I127
sg21
I0
sg22
I0
sg23
I100
sg24
I0
sbssg25
S'P\x83\xd9;\xb0\x13\x068]\r\xe10@\xa2\x92\xf7'
p1815
ssS'corrections_loader'
p1816
(dp1817
g6
(dp1818
g8
S'corrections_loader.html'
p1819
sg10
S'corrections/loader'
p1820
sg12
g13
(g14
g15
NtRp1821
(dp1822
g18
I1
sg19
I0
sg20
I21
sg21
I0
sg22
I0
sg23
I11
sg24
I0
sbssg25
S'D\xb8g#\x9c\xc7\x82\r/\xfbb!\xe5\xec\x16\xd6'
p1823
ssS'_usr_local_lib_python2_7_dist-packages_nose_plugins_prof'
p1824
(dp1825
g6
(dp1826
g8
S'_usr_local_lib_python2_7_dist-packages_nose_plugins_prof.html'
p1827
sg10
S'/usr/local/lib/python2.7/dist-packages/nose/plugins/prof'
p1828
sg12
g13
(g14
g15
NtRp1829
(dp1830
g18
I1
sg19
I0
sg20
I93
sg21
I0
sg22
I0
sg23
I83
sg24
I0
sbssg25
S'\xad\xc3\x19R\x12\xebl\x9a\xee\xde\x84M\xd5\n}['
p1831
ssS'_usr_local_lib_python2_7_dist-packages_pytz_tzfile'
p1832
(dp1833
g6
(dp1834
g8
S'_usr_local_lib_python2_7_dist-packages_pytz_tzfile.html'
p1835
sg10
S'/usr/local/lib/python2.7/dist-packages/pytz/tzfile'
p1836
sg12
g13
(g14
g15
NtRp1837
(dp1838
g18
I1
sg19
I0
sg20
I81
sg21
I0
sg22
I0
sg23
I19
sg24
I0
sbssg25
S'\xc9\xc4j\xca\xf4\xeaen\x9d\xedi/&\x9ad\xd4'
p1839
ssS'data_tables_rights_strings'
p1840
(dp1841
g6
(dp1842
g8
S'data_tables_rights_strings.html'
p1843
sg10
S'data_tables/rights_strings'
p1844
sg12
g13
(g14
g15
NtRp1845
(dp1846
g18
I1
sg19
I0
sg20
I56
sg21
I0
sg22
I0
sg23
I0
sg24
I0
sbssg25
S'\xda\x91\x9fT\x9c\xc0\xec\r\xb3*\x81\xfdg<\xc2\x8b'
p1847
ssS'_usr_local_lib_python2_7_dist-packages_requests_packages___init__'
p1848
(dp1849
g6
(dp1850
g8
S'_usr_local_lib_python2_7_dist-packages_requests_packages___init__.html'
p1851
sg10
S'/usr/local/lib/python2.7/dist-packages/requests/packages/__init__'
p1852
sg12
g13
(g14
g15
NtRp1853
(dp1854
g18
I1
sg19
I0
sg20
I38
sg21
I0
sg22
I0
sg23
I5
sg24
I0
sbssg25
S'\xd5\xab:\xae\xf6*\r\xb9\xd4\xdaGOG\x9d6\x12'
p1855
ssS'_usr_local_lib_python2_7_dist-packages_cryptography_hazmat_bindings_openssl_aes'
p1856
(dp1857
g6
(dp1858
g8
S'_usr_local_lib_python2_7_dist-packages_cryptography_hazmat_bindings_openssl_aes.html'
p1859
sg10
S'/usr/local/lib/python2.7/dist-packages/cryptography/hazmat/bindings/openssl/aes'
p1860
sg12
g13
(g14
g15
NtRp1861
(dp1862
g18
I1
sg19
I0
sg20
I7
sg21
I0
sg22
I0
sg23
I0
sg24
I0
sbssg25
S'\xf8\xab\xae\x11\xcf\xbe\xb4;\xd7\x9d\xa1\xbc\x1f8\xfc\xbc'
p1863
ssS'_usr_local_lib_python2_7_dist-packages_requests_hooks'
p1864
(dp1865
g6
(dp1866
g8
S'_usr_local_lib_python2_7_dist-packages_requests_hooks.html'
p1867
sg10
S'/usr/local/lib/python2.7/dist-packages/requests/hooks'
p1868
sg12
g13
(g14
g15
NtRp1869
(dp1870
g18
I1
sg19
I0
sg20
I18
sg21
I0
sg22
I0
sg23
I10
sg24
I0
sbssg25
S'\xdeQ\xba\xe32\xc4\xd5\x99eE\xffx\xb7fv0'
p1871
ssS'_usr_local_lib_python2_7_dist-packages_OpenSSL_SSL'
p1872
(dp1873
g6
(dp1874
g8
S'_usr_local_lib_python2_7_dist-packages_OpenSSL_SSL.html'
p1875
sg10
S'/usr/local/lib/python2.7/dist-packages/OpenSSL/SSL'
p1876
sg12
g13
(g14
g15
NtRp1877
(dp1878
g18
I1
sg19
I0
sg20
I613
sg21
I0
sg22
I0
sg23
I416
sg24
I0
sbssg25
S'\x10\x15a\xf1\xb6\xc3\xee\x84\xc4n\x9bcS=\xa6V'
p1879
ssS'_usr_local_lib_python2_7_dist-packages_riak_pb_riak_search_pb2'
p1880
(dp1881
g6
(dp1882
g8
S'_usr_local_lib_python2_7_dist-packages_riak_pb_riak_search_pb2.html'
p1883
sg10
S'/usr/local/lib/python2.7/dist-packages/riak_pb/riak_search_pb2'
p1884
sg12
g13
(g14
g15
NtRp1885
(dp1886
g18
I1
sg19
I0
sg20
I25
sg21
I0
sg22
I0
sg23
I0
sg24
I0
sbssg25
S'\xfe\x1e\xb96\\\xd9@%\xa9\xca\xea\xdc\x89k\xf2\xd3'
p1887
ssS'_usr_local_lib_python2_7_dist-packages_cryptography_hazmat_bindings_openssl_x509'
p1888
(dp1889
g6
(dp1890
g8
S'_usr_local_lib_python2_7_dist-packages_cryptography_hazmat_bindings_openssl_x509.html'
p1891
sg10
S'/usr/local/lib/python2.7/dist-packages/cryptography/hazmat/bindings/openssl/x509'
p1892
sg12
g13
(g14
g15
NtRp1893
(dp1894
g18
I1
sg19
I0
sg20
I7
sg21
I0
sg22
I0
sg23
I0
sg24
I0
sbssg25
S'\xe0\x8e\x06{_\xed\x11K&\xfc2\x90S\x14\x86Q'
p1895
ssS'_usr_local_lib_python2_7_dist-packages_cryptography_hazmat_bindings_openssl_dsa'
p1896
(dp1897
g6
(dp1898
g8
S'_usr_local_lib_python2_7_dist-packages_cryptography_hazmat_bindings_openssl_dsa.html'
p1899
sg10
S'/usr/local/lib/python2.7/dist-packages/cryptography/hazmat/bindings/openssl/dsa'
p1900
sg12
g13
(g14
g15
NtRp1901
(dp1902
g18
I1
sg19
I0
sg20
I7
sg21
I0
sg22
I0
sg23
I0
sg24
I0
sbssg25
S'QJ\xf3\x8e\xe0\x8b\x16R\x8b#%\xd3(\x1f*\xfe'
p1903
ssS'helpers_idb_flask_authn'
p1904
(dp1905
g6
(dp1906
g8
S'helpers_idb_flask_authn.html'
p1907
sg10
S'helpers/idb_flask_authn'
p1908
sg12
g13
(g14
g15
NtRp1909
(dp1910
g18
I1
sg19
I0
sg20
I41
sg21
I0
sg22
I0
sg23
I18
sg24
I0
sbssg25
S'\x10\xf89\xdd\xa9\x80\x08\x08J\x95g\x93\\\xcbxJ'
p1911
ssS'_usr_local_lib_python2_7_dist-packages_requests_packages_urllib3_contrib___init__'
p1912
(dp1913
g6
(dp1914
g8
S'_usr_local_lib_python2_7_dist-packages_requests_packages_urllib3_contrib___init__.html'
p1915
sg10
S'/usr/local/lib/python2.7/dist-packages/requests/packages/urllib3/contrib/__init__'
p1916
sg12
g13
(g14
g15
NtRp1917
(dp1918
g18
I1
sg19
I0
sg20
I0
sg21
I0
sg22
I0
sg23
I0
sg24
I0
sbssg25
S'\xca\xf5\x9f\x7f\x88\xdfa\x831|T\x1d\xbc}\xa5v'
p1919
ssS'_usr_local_lib_python2_7_dist-packages_cryptography_hazmat_bindings_openssl_cms'
p1920
(dp1921
g6
(dp1922
g8
S'_usr_local_lib_python2_7_dist-packages_cryptography_hazmat_bindings_openssl_cms.html'
p1923
sg10
S'/usr/local/lib/python2.7/dist-packages/cryptography/hazmat/bindings/openssl/cms'
p1924
sg12
g13
(g14
g15
NtRp1925
(dp1926
g18
I1
sg19
I0
sg20
I7
sg21
I0
sg22
I0
sg23
I0
sg24
I0
sbssg25
S"0\xcd!S\x93!%\xbf'\x81\xcd\x16x\x86\xfb;"
p1927
ssS'_usr_local_lib_python2_7_dist-packages_psycopg2_extras'
p1928
(dp1929
g6
(dp1930
g8
S'_usr_local_lib_python2_7_dist-packages_psycopg2_extras.html'
p1931
sg10
S'/usr/local/lib/python2.7/dist-packages/psycopg2/extras'
p1932
sg12
g13
(g14
g15
NtRp1933
(dp1934
g18
I1
sg19
I0
sg20
I509
sg21
I0
sg22
I0
sg23
I342
sg24
I0
sbssg25
S'\x92\xa9\x0c\x04\xb4>\xee\xe3%|\xf8\n\x0b=Om'
p1935
ssS'_usr_local_lib_python2_7_dist-packages_urllib3_contrib___init__'
p1936
(dp1937
g6
(dp1938
g8
S'_usr_local_lib_python2_7_dist-packages_urllib3_contrib___init__.html'
p1939
sg10
S'/usr/local/lib/python2.7/dist-packages/urllib3/contrib/__init__'
p1940
sg12
g13
(g14
g15
NtRp1941
(dp1942
g18
I1
sg19
I0
sg20
I0
sg21
I0
sg22
I0
sg23
I0
sg24
I0
sbssg25
S'\xca\xf5\x9f\x7f\x88\xdfa\x831|T\x1d\xbc}\xa5v'
p1943
ssS'_usr_local_lib_python2_7_dist-packages_google_protobuf_internal_python_message'
p1944
(dp1945
g6
(dp1946
g8
S'_usr_local_lib_python2_7_dist-packages_google_protobuf_internal_python_message.html'
p1947
sg10
S'/usr/local/lib/python2.7/dist-packages/google/protobuf/internal/python_message'
p1948
sg12
g13
(g14
g15
NtRp1949
(dp1950
g18
I1
sg19
I0
sg20
I541
sg21
I0
sg22
I0
sg23
I265
sg24
I0
sbssg25
S'\xdd$\x98\x1f\xc6\xb0\x1e\xb1\x90)(\xd7K<G\xf7'
p1951
ssS'data_sync'
p1952
(dp1953
g6
(dp1954
g8
S'data_sync.html'
p1955
sg10
g1952
sg12
g13
(g14
g15
NtRp1956
(dp1957
g18
I1
sg19
I0
sg20
I355
sg21
I0
sg22
I0
sg23
I319
sg24
I0
sbssg25
S'\xf6S7\xd2g\x15\x01E6f\x8f\x14\xcc\xaf*\xb3'
p1958
ssS'_usr_local_lib_python2_7_dist-packages_six'
p1959
(dp1960
g6
(dp1961
g8
S'_usr_local_lib_python2_7_dist-packages_six.html'
p1962
sg10
S'/usr/local/lib/python2.7/dist-packages/six'
p1963
sg12
g13
(g14
g15
NtRp1964
(dp1965
g18
I1
sg19
I0
sg20
I435
sg21
I0
sg22
I0
sg23
I199
sg24
I0
sbssg25
S'\xa4\xfb\xe0(aJn\xe5\xe7KW\xda\xdbFq\xce'
p1966
ssS'_usr_local_lib_python2_7_dist-packages_cryptography_hazmat_bindings_openssl_conf'
p1967
(dp1968
g6
(dp1969
g8
S'_usr_local_lib_python2_7_dist-packages_cryptography_hazmat_bindings_openssl_conf.html'
p1970
sg10
S'/usr/local/lib/python2.7/dist-packages/cryptography/hazmat/bindings/openssl/conf'
p1971
sg12
g13
(g14
g15
NtRp1972
(dp1973
g18
I1
sg19
I0
sg20
I7
sg21
I0
sg22
I0
sg23
I0
sg24
I0
sbssg25
S'\xaf\x9e \xb5\xbe= \xc0\xbe:W\xe1\x88\xe1gS'
p1974
ssS'_usr_local_lib_python2_7_dist-packages_flask_uuid'
p1975
(dp1976
g6
(dp1977
g8
S'_usr_local_lib_python2_7_dist-packages_flask_uuid.html'
p1978
sg10
S'/usr/local/lib/python2.7/dist-packages/flask_uuid'
p1979
sg12
g13
(g14
g15
NtRp1980
(dp1981
g18
I1
sg19
I0
sg20
I23
sg21
I0
sg22
I0
sg23
I7
sg24
I0
sbssg25
S'\x8a\xaa\x93U2)\xf0\xdcf\rK\x83\x8f\xc2=0'
p1982
ssS'_usr_local_lib_python2_7_dist-packages_nose_plugins_cover'
p1983
(dp1984
g6
(dp1985
g8
S'_usr_local_lib_python2_7_dist-packages_nose_plugins_cover.html'
p1986
sg10
S'/usr/local/lib/python2.7/dist-packages/nose/plugins/cover'
p1987
sg12
g13
(g14
g15
NtRp1988
(dp1989
g18
I1
sg19
I0
sg20
I153
sg21
I0
sg22
I0
sg23
I144
sg24
I0
sbssg25
S'\x95\xa4P\xeb\xd7\xf9\x1c\xe0\xebR\x07\xe0f\x97\x82\x81'
p1990
ssS'_usr_local_lib_python2_7_dist-packages_requests_compat'
p1991
(dp1992
g6
(dp1993
g8
S'_usr_local_lib_python2_7_dist-packages_requests_compat.html'
p1994
sg10
S'/usr/local/lib/python2.7/dist-packages/requests/compat'
p1995
sg12
g13
(g14
g15
NtRp1996
(dp1997
g18
I1
sg19
I0
sg20
I35
sg21
I0
sg22
I0
sg23
I12
sg24
I0
sbssg25
S'\xd6\x0e\xca`\x048\t8bi\xfd\xaf\xdc\x87\xd4,'
p1998
ssS'_usr_local_lib_python2_7_dist-packages_flask_testing'
p1999
(dp2000
g6
(dp2001
g8
S'_usr_local_lib_python2_7_dist-packages_flask_testing.html'
p2002
sg10
S'/usr/local/lib/python2.7/dist-packages/flask/testing'
p2003
sg12
g13
(g14
g15
NtRp2004
(dp2005
g18
I1
sg19
I0
sg20
I58
sg21
I0
sg22
I0
sg23
I31
sg24
I0
sbssg25
S'\xd9\xf3_\xa9\x18t\xef\xa2\xc5q@\xd3\xfe@\xd4c'
p2006
ssS'__init__'
p2007
(dp2008
g6
(dp2009
g8
S'__init__.html'
p2010
sg10
g2007
sg12
g13
(g14
g15
NtRp2011
(dp2012
g18
I1
sg19
I0
sg20
I0
sg21
I0
sg22
I0
sg23
I0
sg24
I0
sbssg25
S'\xe5P\x11)^\xf4>1D.\x0e\x0b\xa1\xf8[+'
p2013
ssS'_usr_local_lib_python2_7_dist-packages_requests_packages_urllib3_request'
p2014
(dp2015
g6
(dp2016
g8
S'_usr_local_lib_python2_7_dist-packages_requests_packages_urllib3_request.html'
p2017
sg10
S'/usr/local/lib/python2.7/dist-packages/requests/packages/urllib3/request'
p2018
sg12
g13
(g14
g15
NtRp2019
(dp2020
g18
I1
sg19
I0
sg20
I36
sg21
I0
sg22
I0
sg23
I22
sg24
I0
sbssg25
S'\x96]w\x1es\xf4\xbf\xcd\x08\x13\xb3|\xec\x90\x91\x8e'
p2021
ssS'_usr_local_lib_python2_7_dist-packages_urllib3_exceptions'
p2022
(dp2023
g6
(dp2024
g8
S'_usr_local_lib_python2_7_dist-packages_urllib3_exceptions.html'
p2025
sg10
S'/usr/local/lib/python2.7/dist-packages/urllib3/exceptions'
p2026
sg12
g13
(g14
g15
NtRp2027
(dp2028
g18
I1
sg19
I0
sg20
I63
sg21
I0
sg22
I0
sg23
I15
sg24
I0
sbssg25
S'\xcb`r\xa6\xdb\x1f+\x8ff\x84\r\x90\xc9*\x98_'
p2029
ssS'_usr_local_lib_python2_7_dist-packages_requests_utils'
p2030
(dp2031
g6
(dp2032
g8
S'_usr_local_lib_python2_7_dist-packages_requests_utils.html'
p2033
sg10
S'/usr/local/lib/python2.7/dist-packages/requests/utils'
p2034
sg12
g13
(g14
g15
NtRp2035
(dp2036
g18
I1
sg19
I0
sg20
I329
sg21
I0
sg22
I0
sg23
I263
sg24
I0
sbssg25
S'\x9f\x98\xe8\x18\xe1)\xc0\x8bG \x7f\xdf^V\x16\xaa'
p2037
ssS'_usr_local_lib_python2_7_dist-packages_flask_ctx'
p2038
(dp2039
g6
(dp2040
g8
S'_usr_local_lib_python2_7_dist-packages_flask_ctx.html'
p2041
sg10
S'/usr/local/lib/python2.7/dist-packages/flask/ctx'
p2042
sg12
g13
(g14
g15
NtRp2043
(dp2044
g18
I1
sg19
I0
sg20
I140
sg21
I0
sg22
I0
sg23
I38
sg24
I0
sbssg25
S'\xe9\xc8\xdcO\t\xa0mD\xfc\xf7\xc2Q\xd1e\x8e\x99'
p2045
ssS'start_data_api'
p2046
(dp2047
g6
(dp2048
g8
S'start_data_api.html'
p2049
sg10
g2046
sg12
g13
(g14
g15
NtRp2050
(dp2051
g18
I1
sg19
I0
sg20
I2
sg21
I0
sg22
I0
sg23
I0
sg24
I0
sbssg25
S'#\xbdy//\x12\x9a=\xee\xb9+\xde\xa3\xfa\xd2\xcc'
p2052
ssS'_usr_local_lib_python2_7_dist-packages_jinja2_visitor'
p2053
(dp2054
g6
(dp2055
g8
S'_usr_local_lib_python2_7_dist-packages_jinja2_visitor.html'
p2056
sg10
S'/usr/local/lib/python2.7/dist-packages/jinja2/visitor'
p2057
sg12
g13
(g14
g15
NtRp2058
(dp2059
g18
I1
sg19
I0
sg20
I40
sg21
I0
sg22
I0
sg23
I31
sg24
I0
sbssg25
S'\xe6\xab\xca \xee.^\x1c\xd1D\xf8\xfd\xf2\xb7\x0e0'
p2060
ssS'_usr_local_lib_python2_7_dist-packages_jinja2_defaults'
p2061
(dp2062
g6
(dp2063
g8
S'_usr_local_lib_python2_7_dist-packages_jinja2_defaults.html'
p2064
sg10
S'/usr/local/lib/python2.7/dist-packages/jinja2/defaults'
p2065
sg12
g13
(g14
g15
NtRp2066
(dp2067
g18
I1
sg19
I0
sg20
I19
sg21
I0
sg22
I0
sg23
I0
sg24
I0
sbssg25
S'\xe2s1\x07\x11\xcc\xb8t@\xa5n<\x98\x97"j'
p2068
ssS'_usr_local_lib_python2_7_dist-packages_markupsafe__compat'
p2069
(dp2070
g6
(dp2071
g8
S'_usr_local_lib_python2_7_dist-packages_markupsafe__compat.html'
p2072
sg10
S'/usr/local/lib/python2.7/dist-packages/markupsafe/_compat'
p2073
sg12
g13
(g14
g15
NtRp2074
(dp2075
g18
I1
sg19
I0
sg20
I14
sg21
I0
sg22
I0
sg23
I5
sg24
I0
sbssg25
S'\x99\x16\xdbp\x85/\x12e\xfa.\xcb\xca\xb3T\x01\xdd'
p2076
ssS'_usr_local_lib_python2_7_dist-packages_urllib3_packages_six'
p2077
(dp2078
g6
(dp2079
g8
S'_usr_local_lib_python2_7_dist-packages_urllib3_packages_six.html'
p2080
sg10
S'/usr/local/lib/python2.7/dist-packages/urllib3/packages/six'
p2081
sg12
g13
(g14
g15
NtRp2082
(dp2083
g18
I1
sg19
I0
sg20
I217
sg21
I0
sg22
I0
sg23
I114
sg24
I0
sbssg25
S'\xab\x8a\xe8\xb1E\xfd\x87\x9b\xfe\x8f&\xaf1\xd8\xd7v'
p2084
ssS'_usr_local_lib_python2_7_dist-packages_riak_transports_pool'
p2085
(dp2086
g6
(dp2087
g8
S'_usr_local_lib_python2_7_dist-packages_riak_transports_pool.html'
p2088
sg10
S'/usr/local/lib/python2.7/dist-packages/riak/transports/pool'
p2089
sg12
g13
(g14
g15
NtRp2090
(dp2091
g18
I1
sg19
I0
sg20
I96
sg21
I0
sg22
I0
sg23
I67
sg24
I0
sbssg25
S'\xbbF%\x8c2\x80\xa6\xc6(\x04\xe44\xb6@|~'
p2092
ssS'_usr_local_lib_python2_7_dist-packages_riak_util'
p2093
(dp2094
g6
(dp2095
g8
S'_usr_local_lib_python2_7_dist-packages_riak_util.html'
p2096
sg10
S'/usr/local/lib/python2.7/dist-packages/riak/util'
p2097
sg12
g13
(g14
g15
NtRp2098
(dp2099
g18
I1
sg19
I0
sg20
I55
sg21
I0
sg22
I0
sg23
I39
sg24
I0
sbssg25
S'\x9e\xa2\xec\xff\xd9\x03q\xfe3\x90\r\x9c?\xffV\xa7'
p2100
ssS'_usr_local_lib_python2_7_dist-packages_jinja2_loaders'
p2101
(dp2102
g6
(dp2103
g8
S'_usr_local_lib_python2_7_dist-packages_jinja2_loaders.html'
p2104
sg10
S'/usr/local/lib/python2.7/dist-packages/jinja2/loaders'
p2105
sg12
g13
(g14
g15
NtRp2106
(dp2107
g18
I1
sg19
I0
sg20
I221
sg21
I0
sg22
I0
sg23
I168
sg24
I0
sbssg25
S'\xd4\x7f\xdd\xb8`C~\xcb\xc1\xaa\xc5\xff\x9c\xd9\x9aI'
p2108
ssS'_usr_local_lib_python2_7_dist-packages_riak_datatypes___init__'
p2109
(dp2110
g6
(dp2111
g8
S'_usr_local_lib_python2_7_dist-packages_riak_datatypes___init__.html'
p2112
sg10
S'/usr/local/lib/python2.7/dist-packages/riak/datatypes/__init__'
p2113
sg12
g13
(g14
g15
NtRp2114
(dp2115
g18
I1
sg19
I0
sg20
I9
sg21
I0
sg22
I0
sg23
I0
sg24
I0
sbssg25
S"\x81\x9bI%'\xfd\xd1\x16\x87=Aet,\xb28"
p2116
ssS'elasticsearch_backend___init__'
p2117
(dp2118
g6
(dp2119
g8
S'elasticsearch_backend___init__.html'
p2120
sg10
S'elasticsearch_backend/__init__'
p2121
sg12
g13
(g14
g15
NtRp2122
(dp2123
g18
I1
sg19
I0
sg20
I0
sg21
I0
sg22
I0
sg23
I0
sg24
I0
sbssg25
S'\xca\xf5\x9f\x7f\x88\xdfa\x831|T\x1d\xbc}\xa5v'
p2124
ssS'_usr_local_lib_python2_7_dist-packages_nose_util'
p2125
(dp2126
g6
(dp2127
g8
S'_usr_local_lib_python2_7_dist-packages_nose_util.html'
p2128
sg10
S'/usr/local/lib/python2.7/dist-packages/nose/util'
p2129
sg12
g13
(g14
g15
NtRp2130
(dp2131
g18
I1
sg19
I0
sg20
I350
sg21
I0
sg22
I0
sg23
I253
sg24
I0
sbssg25
S"\x15\xed\xd3\xe6\x04x\x85\x8dZ'\x95+\xad\xdc\xa1p"
p2132
ssS'_usr_local_lib_python2_7_dist-packages_google_protobuf_internal_type_checkers'
p2133
(dp2134
g6
(dp2135
g8
S'_usr_local_lib_python2_7_dist-packages_google_protobuf_internal_type_checkers.html'
p2136
sg10
S'/usr/local/lib/python2.7/dist-packages/google/protobuf/internal/type_checkers'
p2137
sg12
g13
(g14
g15
NtRp2138
(dp2139
g18
I1
sg19
I0
sg20
I53
sg21
I0
sg22
I0
sg23
I16
sg24
I0
sbssg25
S"\x93\xca\xd5\xf7M\xf6'G\x94\xf6\xc4\x1f~\x82+2"
p2140
ssS'_usr_local_lib_python2_7_dist-packages_urllib3_connectionpool'
p2141
(dp2142
g6
(dp2143
g8
S'_usr_local_lib_python2_7_dist-packages_urllib3_connectionpool.html'
p2144
sg10
S'/usr/local/lib/python2.7/dist-packages/urllib3/connectionpool'
p2145
sg12
g13
(g14
g15
NtRp2146
(dp2147
g18
I1
sg19
I0
sg20
I280
sg21
I0
sg22
I0
sg23
I223
sg24
I0
sbssg25
S'eoR\x8a>\x07+T\xe7\x8a\x9b\xee\xa9\xb4B\x91'
p2148
ssS'data_tables___init__'
p2149
(dp2150
g6
(dp2151
g8
S'data_tables___init__.html'
p2152
sg10
S'data_tables/__init__'
p2153
sg12
g13
(g14
g15
NtRp2154
(dp2155
g18
I1
sg19
I0
sg20
I0
sg21
I0
sg22
I0
sg23
I0
sg24
I0
sbssg25
S'\xca\xf5\x9f\x7f\x88\xdfa\x831|T\x1d\xbc}\xa5v'
p2156
ssS'_usr_local_lib_python2_7_dist-packages_nose_plugins_logcapture'
p2157
(dp2158
g6
(dp2159
g8
S'_usr_local_lib_python2_7_dist-packages_nose_plugins_logcapture.html'
p2160
sg10
S'/usr/local/lib/python2.7/dist-packages/nose/plugins/logcapture'
p2161
sg12
g13
(g14
g15
NtRp2162
(dp2163
g18
I1
sg19
I0
sg20
I126
sg21
I0
sg22
I0
sg23
I82
sg24
I0
sbssg25
S"'\xe6%\xe5\xe4\xdfG\xbc|\x08\x1fa\xfez\xc7\x8e"
p2164
ssS'_usr_local_lib_python2_7_dist-packages_cryptography_hazmat_bindings_openssl_ssl'
p2165
(dp2166
g6
(dp2167
g8
S'_usr_local_lib_python2_7_dist-packages_cryptography_hazmat_bindings_openssl_ssl.html'
p2168
sg10
S'/usr/local/lib/python2.7/dist-packages/cryptography/hazmat/bindings/openssl/ssl'
p2169
sg12
g13
(g14
g15
NtRp2170
(dp2171
g18
I1
sg19
I0
sg20
I7
sg21
I0
sg22
I0
sg23
I0
sg24
I0
sbssg25
S'\x89\xab\x8f\x93C\x00\x1e\xab7\x9b\xff\xab\x94\xf8r^'
p2172
ssS'_usr_local_lib_python2_7_dist-packages_jinja2_optimizer'
p2173
(dp2174
g6
(dp2175
g8
S'_usr_local_lib_python2_7_dist-packages_jinja2_optimizer.html'
p2176
sg10
S'/usr/local/lib/python2.7/dist-packages/jinja2/optimizer'
p2177
sg12
g13
(g14
g15
NtRp2178
(dp2179
g18
I1
sg19
I0
sg20
I31
sg21
I0
sg22
I0
sg23
I21
sg24
I0
sbssg25
S'\x9f\x07}\x9a/\x1am$\xe2ht\x16\x9c0\x9d\x1a'
p2180
ssS'_usr_local_lib_python2_7_dist-packages_jinja2_nodes'
p2181
(dp2182
g6
(dp2183
g8
S'_usr_local_lib_python2_7_dist-packages_jinja2_nodes.html'
p2184
sg10
S'/usr/local/lib/python2.7/dist-packages/jinja2/nodes'
p2185
sg12
g13
(g14
g15
NtRp2186
(dp2187
g18
I1
sg19
I0
sg20
I423
sg21
I0
sg22
I0
sg23
I223
sg24
I0
sbssg25
S'\xd1\xace\xdc\xf9k$\x85\x06\x1fV\xd0\xe9D\x99S'
p2188
ssS'helpers_conversions'
p2189
(dp2190
g6
(dp2191
g8
S'helpers_conversions.html'
p2192
sg10
S'helpers/conversions'
p2193
sg12
g13
(g14
g15
NtRp2194
(dp2195
g18
I1
sg19
I0
sg20
I287
sg21
I0
sg22
I0
sg23
I46
sg24
I0
sbssg25
S'\x1d\xaa\xd2Dh\xd2\x9d\x0bS@0\xd5(\xed\x9d\xe5'
p2196
ssS'_usr_local_lib_python2_7_dist-packages_elasticsearch_connection_http_urllib3'
p2197
(dp2198
g6
(dp2199
g8
S'_usr_local_lib_python2_7_dist-packages_elasticsearch_connection_http_urllib3.html'
p2200
sg10
S'/usr/local/lib/python2.7/dist-packages/elasticsearch/connection/http_urllib3'
p2201
sg12
g13
(g14
g15
NtRp2202
(dp2203
g18
I1
sg19
I0
sg20
I56
sg21
I0
sg22
I0
sg23
I46
sg24
I0
sbssg25
S'0r\xe7\xb2h`\xa8\x90\xc9\x83)\xeajb<%'
p2204
ssS'_usr_local_lib_python2_7_dist-packages_cryptography_hazmat_bindings_openssl_osrandom_engine'
p2205
(dp2206
g6
(dp2207
g8
S'_usr_local_lib_python2_7_dist-packages_cryptography_hazmat_bindings_openssl_osrandom_engine.html'
p2208
sg10
S'/usr/local/lib/python2.7/dist-packages/cryptography/hazmat/bindings/openssl/osrandom_engine'
p2209
sg12
g13
(g14
g15
NtRp2210
(dp2211
g18
I1
sg19
I0
sg20
I9
sg21
I0
sg22
I0
sg23
I0
sg24
I0
sbssg25
S'\x0c+UF\x1c\xce\xc7\xa6\x80;rt\xbc8\xa3\x11'
p2212
ssS'_usr_local_lib_python2_7_dist-packages_nose_plugins_deprecated'
p2213
(dp2214
g6
(dp2215
g8
S'_usr_local_lib_python2_7_dist-packages_nose_plugins_deprecated.html'
p2216
sg10
S'/usr/local/lib/python2.7/dist-packages/nose/plugins/deprecated'
p2217
sg12
g13
(g14
g15
NtRp2218
(dp2219
g18
I1
sg19
I0
sg20
I16
sg21
I0
sg22
I0
sg23
I12
sg24
I0
sbssg25
S'\xf5\x1d!_\xea\xd9\xf7]x\xe4\xc1\xe6\xb0\xabPl'
p2220
ssS'_usr_local_lib_python2_7_dist-packages_cryptography_hazmat_bindings_openssl_nid'
p2221
(dp2222
g6
(dp2223
g8
S'_usr_local_lib_python2_7_dist-packages_cryptography_hazmat_bindings_openssl_nid.html'
p2224
sg10
S'/usr/local/lib/python2.7/dist-packages/cryptography/hazmat/bindings/openssl/nid'
p2225
sg12
g13
(g14
g15
NtRp2226
(dp2227
g18
I1
sg19
I0
sg20
I7
sg21
I0
sg22
I0
sg23
I0
sg24
I0
sbssg25
S'\xa0\xcc@\xe1i\xcbG~kcQ9\x87\xff\xb0s'
p2228
ssS'_usr_local_lib_python2_7_dist-packages_elasticsearch_client___init__'
p2229
(dp2230
g6
(dp2231
g8
S'_usr_local_lib_python2_7_dist-packages_elasticsearch_client___init__.html'
p2232
sg10
S'/usr/local/lib/python2.7/dist-packages/elasticsearch/client/__init__'
p2233
sg12
g13
(g14
g15
NtRp2234
(dp2235
g18
I1
sg19
I0
sg20
I287
sg21
I0
sg22
I0
sg23
I192
sg24
I0
sbssg25
S"\xde\x97oC'\xd0\xfe\xd9_\xc9\x15\xa1\xe1\r\x80@"
p2236
ssS'_usr_local_lib_python2_7_dist-packages_riak_pb_riak_kv_pb2'
p2237
(dp2238
g6
(dp2239
g8
S'_usr_local_lib_python2_7_dist-packages_riak_pb_riak_kv_pb2.html'
p2240
sg10
S'/usr/local/lib/python2.7/dist-packages/riak_pb/riak_kv_pb2'
p2241
sg12
g13
(g14
g15
NtRp2242
(dp2243
g18
I1
sg19
I0
sg20
I140
sg21
I0
sg22
I0
sg23
I0
sg24
I0
sbssg25
S'\x0ey \xdd~\xc7\xa0v\x14J\xdaM0\xdc\xf7I'
p2244
ssS'_usr_local_lib_python2_7_dist-packages_requests_packages_urllib3_packages___init__'
p2245
(dp2246
g6
(dp2247
g8
S'_usr_local_lib_python2_7_dist-packages_requests_packages_urllib3_packages___init__.html'
p2248
sg10
S'/usr/local/lib/python2.7/dist-packages/requests/packages/urllib3/packages/__init__'
p2249
sg12
g13
(g14
g15
NtRp2250
(dp2251
g18
I1
sg19
I0
sg20
I2
sg21
I0
sg22
I0
sg23
I0
sg24
I0
sbssg25
S'm\xe6C\xc6\x82|\xf7\xbc\xe7R\xb6\xe3\x03Bg\x11'
p2252
ssS'_usr_local_lib_python2_7_dist-packages_requests_packages_urllib3_util_request'
p2253
(dp2254
g6
(dp2255
g8
S'_usr_local_lib_python2_7_dist-packages_requests_packages_urllib3_util_request.html'
p2256
sg10
S'/usr/local/lib/python2.7/dist-packages/requests/packages/urllib3/util/request'
p2257
sg12
g13
(g14
g15
NtRp2258
(dp2259
g18
I1
sg19
I0
sg20
I23
sg21
I0
sg22
I0
sg23
I19
sg24
I0
sbssg25
S'\xa7\xd4x\xc4\x84Zs3uqQ\x8f\xdd\xe1t\xcc'
p2260
ssS'_usr_local_lib_python2_7_dist-packages_cryptography_hazmat_bindings_openssl_ecdh'
p2261
(dp2262
g6
(dp2263
g8
S'_usr_local_lib_python2_7_dist-packages_cryptography_hazmat_bindings_openssl_ecdh.html'
p2264
sg10
S'/usr/local/lib/python2.7/dist-packages/cryptography/hazmat/bindings/openssl/ecdh'
p2265
sg12
g13
(g14
g15
NtRp2266
(dp2267
g18
I1
sg19
I0
sg20
I7
sg21
I0
sg22
I0
sg23
I0
sg24
I0
sbssg25
S'C>vZ_\x01\xb2;\x02\rm2\x06\xeb\x9f8'
p2268
ssS'_usr_local_lib_python2_7_dist-packages_markupsafe___init__'
p2269
(dp2270
g6
(dp2271
g8
S'_usr_local_lib_python2_7_dist-packages_markupsafe___init__.html'
p2272
sg10
S'/usr/local/lib/python2.7/dist-packages/markupsafe/__init__'
p2273
sg12
g13
(g14
g15
NtRp2274
(dp2275
g18
I1
sg19
I0
sg20
I155
sg21
I0
sg22
I0
sg23
I89
sg24
I0
sbssg25
S"\x81\x81'K\xc7\x0c\x1f\xd3\x80/\xc5'=\xfe\xea\x1f"
p2276
ssS'_usr_local_lib_python2_7_dist-packages_urllib3_response'
p2277
(dp2278
g6
(dp2279
g8
S'_usr_local_lib_python2_7_dist-packages_urllib3_response.html'
p2280
sg10
S'/usr/local/lib/python2.7/dist-packages/urllib3/response'
p2281
sg12
g13
(g14
g15
NtRp2282
(dp2283
g18
I1
sg19
I0
sg20
I171
sg21
I0
sg22
I0
sg23
I135
sg24
I0
sbssg25
S'Je}"\x96\x91\x91\xf5{\x8b\xc0\xbc\xd9\xc4\xd4\xe5'
p2284
ssS'_usr_local_lib_python2_7_dist-packages_cryptography_hazmat_bindings_openssl_crypto'
p2285
(dp2286
g6
(dp2287
g8
S'_usr_local_lib_python2_7_dist-packages_cryptography_hazmat_bindings_openssl_crypto.html'
p2288
sg10
S'/usr/local/lib/python2.7/dist-packages/cryptography/hazmat/bindings/openssl/crypto'
p2289
sg12
g13
(g14
g15
NtRp2290
(dp2291
g18
I1
sg19
I0
sg20
I7
sg21
I0
sg22
I0
sg23
I0
sg24
I0
sbssg25
S',{8\x05\x12W+\xafsw8KoPl!'
p2292
ssS'_usr_local_lib_python2_7_dist-packages_cryptography_hazmat_bindings_openssl_opensslv'
p2293
(dp2294
g6
(dp2295
g8
S'_usr_local_lib_python2_7_dist-packages_cryptography_hazmat_bindings_openssl_opensslv.html'
p2296
sg10
S'/usr/local/lib/python2.7/dist-packages/cryptography/hazmat/bindings/openssl/opensslv'
p2297
sg12
g13
(g14
g15
NtRp2298
(dp2299
g18
I1
sg19
I0
sg20
I7
sg21
I0
sg22
I0
sg23
I0
sg24
I0
sbssg25
S'\xac\xa5T\x9d\xaa1J\x16\xc6e`7S\xfa#7'
p2300
ssS'_usr_local_lib_python2_7_dist-packages_cryptography_hazmat_bindings_openssl_dh'
p2301
(dp2302
g6
(dp2303
g8
S'_usr_local_lib_python2_7_dist-packages_cryptography_hazmat_bindings_openssl_dh.html'
p2304
sg10
S'/usr/local/lib/python2.7/dist-packages/cryptography/hazmat/bindings/openssl/dh'
p2305
sg12
g13
(g14
g15
NtRp2306
(dp2307
g18
I1
sg19
I0
sg20
I7
sg21
I0
sg22
I0
sg23
I0
sg24
I0
sbssg25
S'\x1d!a\x8d\xd5\x9c\xff\xf2\xe7T`1\x85\xe5\xf2S'
p2308
ssS'_usr_local_lib_python2_7_dist-packages_riak_transports_http_connection'
p2309
(dp2310
g6
(dp2311
g8
S'_usr_local_lib_python2_7_dist-packages_riak_transports_http_connection.html'
p2312
sg10
S'/usr/local/lib/python2.7/dist-packages/riak/transports/http/connection'
p2313
sg12
g13
(g14
g15
NtRp2314
(dp2315
g18
I1
sg19
I0
sg20
I37
sg21
I0
sg22
I0
sg23
I25
sg24
I0
sbssg25
S'\xc6 \x10\x883\xc0PB\xa5\xf4I\xfb\x1d\xf67{'
p2316
ssS'_usr_local_lib_python2_7_dist-packages_riak_transports_pbc___init__'
p2317
(dp2318
g6
(dp2319
g8
S'_usr_local_lib_python2_7_dist-packages_riak_transports_pbc___init__.html'
p2320
sg10
S'/usr/local/lib/python2.7/dist-packages/riak/transports/pbc/__init__'
p2321
sg12
g13
(g14
g15
NtRp2322
(dp2323
g18
I1
sg19
I0
sg20
I20
sg21
I0
sg22
I0
sg23
I7
sg24
I0
sbssg25
S'\xc1\x18\x02\x9d\xc1\xae\x9a\xac\x05\x90\x01\xfc\xc1@a\x9c'
p2324
ssS'_usr_local_lib_python2_7_dist-packages_pyproj___init__'
p2325
(dp2326
g6
(dp2327
g8
S'_usr_local_lib_python2_7_dist-packages_pyproj___init__.html'
p2328
sg10
S'/usr/local/lib/python2.7/dist-packages/pyproj/__init__'
p2329
sg12
g13
(g14
g15
NtRp2330
(dp2331
g18
I1
sg19
I0
sg20
I187
sg21
I0
sg22
I0
sg23
I129
sg24
I0
sbssg25
S'+\x83k\xb5\x97U\x85x\xaeT"3\xda\xa3\xedq'
p2332
ssS'_usr_local_lib_python2_7_dist-packages_cryptography_hazmat_bindings_openssl_ec'
p2333
(dp2334
g6
(dp2335
g8
S'_usr_local_lib_python2_7_dist-packages_cryptography_hazmat_bindings_openssl_ec.html'
p2336
sg10
S'/usr/local/lib/python2.7/dist-packages/cryptography/hazmat/bindings/openssl/ec'
p2337
sg12
g13
(g14
g15
NtRp2338
(dp2339
g18
I1
sg19
I0
sg20
I7
sg21
I0
sg22
I0
sg23
I0
sg24
I0
sbssg25
S'\xf1\x93C\xd5\xc0B%\x95\xb6ND\xd4\xa1\x134\x88'
p2340
ssS'_usr_local_lib_python2_7_dist-packages_google_protobuf___init__'
p2341
(dp2342
g6
(dp2343
g8
S'_usr_local_lib_python2_7_dist-packages_google_protobuf___init__.html'
p2344
sg10
S'/usr/local/lib/python2.7/dist-packages/google/protobuf/__init__'
p2345
sg12
g13
(g14
g15
NtRp2346
(dp2347
g18
I1
sg19
I0
sg20
I0
sg21
I0
sg22
I0
sg23
I0
sg24
I0
sbssg25
S'\xca\xf5\x9f\x7f\x88\xdfa\x831|T\x1d\xbc}\xa5v'
p2348
ssS'_usr_local_lib_python2_7_dist-packages_cryptography_hazmat_bindings_openssl_evp'
p2349
(dp2350
g6
(dp2351
g8
S'_usr_local_lib_python2_7_dist-packages_cryptography_hazmat_bindings_openssl_evp.html'
p2352
sg10
S'/usr/local/lib/python2.7/dist-packages/cryptography/hazmat/bindings/openssl/evp'
p2353
sg12
g13
(g14
g15
NtRp2354
(dp2355
g18
I1
sg19
I0
sg20
I7
sg21
I0
sg22
I0
sg23
I0
sg24
I0
sbssg25
S'\xe5\xa5\ri\x16\x96s\x16\x0b^\x13]]E\xd77'
p2356
ssS'_usr_local_lib_python2_7_dist-packages_flask__compat'
p2357
(dp2358
g6
(dp2359
g8
S'_usr_local_lib_python2_7_dist-packages_flask__compat.html'
p2360
sg10
S'/usr/local/lib/python2.7/dist-packages/flask/_compat'
p2361
sg12
g13
(g14
g15
NtRp2362
(dp2363
g18
I1
sg19
I0
sg20
I38
sg21
I0
sg22
I0
sg23
I20
sg24
I0
sbssg25
S's\xcd\x8a\xd4\xc2\xb9\x888\x0c\x97\xf4\x02\xc7\xcf\xf3\xeb'
p2364
ssS'_usr_local_lib_python2_7_dist-packages_requests_packages_urllib3_response'
p2365
(dp2366
g6
(dp2367
g8
S'_usr_local_lib_python2_7_dist-packages_requests_packages_urllib3_response.html'
p2368
sg10
S'/usr/local/lib/python2.7/dist-packages/requests/packages/urllib3/response'
p2369
sg12
g13
(g14
g15
NtRp2370
(dp2371
g18
I1
sg19
I0
sg20
I171
sg21
I0
sg22
I0
sg23
I135
sg24
I0
sbssg25
S'Je}"\x96\x91\x91\xf5{\x8b\xc0\xbc\xd9\xc4\xd4\xe5'
p2372
ssS'corrections___init__'
p2373
(dp2374
g6
(dp2375
g8
S'corrections___init__.html'
p2376
sg10
S'corrections/__init__'
p2377
sg12
g13
(g14
g15
NtRp2378
(dp2379
g18
I1
sg19
I0
sg20
I3
sg21
I0
sg22
I0
sg23
I0
sg24
I0
sbssg25
S'_\xfc\x80k`\xa3\xc9\xf0M\xa0T:\x89IOu'
p2380
ssS'_usr_local_lib_python2_7_dist-packages_flask_helpers'
p2381
(dp2382
g6
(dp2383
g8
S'_usr_local_lib_python2_7_dist-packages_flask_helpers.html'
p2384
sg10
S'/usr/local/lib/python2.7/dist-packages/flask/helpers'
p2385
sg12
g13
(g14
g15
NtRp2386
(dp2387
g18
I1
sg19
I0
sg20
I277
sg21
I0
sg22
I0
sg23
I170
sg24
I0
sbssg25
S'I\xee\x07\x06T\rP\x9b\x82v\x99k\xf3t\x17\xba'
p2388
ssS'_usr_local_lib_python2_7_dist-packages_nose_loader'
p2389
(dp2390
g6
(dp2391
g8
S'_usr_local_lib_python2_7_dist-packages_nose_loader.html'
p2392
sg10
S'/usr/local/lib/python2.7/dist-packages/nose/loader'
p2393
sg12
g13
(g14
g15
NtRp2394
(dp2395
g18
I1
sg19
I0
sg20
I350
sg21
I0
sg22
I0
sg23
I206
sg24
I0
sbssg25
S'\x94p\x0c\x80).W\xadZ\x04\xf6v\n\x16\xf3\xae'
p2396
ssS'_usr_local_lib_python2_7_dist-packages_nose_plugins_multiprocess'
p2397
(dp2398
g6
(dp2399
g8
S'_usr_local_lib_python2_7_dist-packages_nose_plugins_multiprocess.html'
p2400
sg10
S'/usr/local/lib/python2.7/dist-packages/nose/plugins/multiprocess'
p2401
sg12
g13
(g14
g15
NtRp2402
(dp2403
g18
I1
sg19
I0
sg20
I490
sg21
I0
sg22
I0
sg23
I480
sg24
I0
sbssg25
S'2\xd7HG\xb3\xc7\x892*DK\xef\x08VZo'
p2404
ssS'postgres_backend_sink'
p2405
(dp2406
g6
(dp2407
g8
S'postgres_backend_sink.html'
p2408
sg10
S'postgres_backend/sink'
p2409
sg12
g13
(g14
g15
NtRp2410
(dp2411
g18
I1
sg19
I0
sg20
I69
sg21
I0
sg22
I0
sg23
I56
sg24
I0
sbssg25
S'v@\xac\xdfYK\xb9\xfb\xa6[b\xdc\xffN\xb3\x9b'
p2412
ssS'_usr_local_lib_python2_7_dist-packages_flask_app'
p2413
(dp2414
g6
(dp2415
g8
S'_usr_local_lib_python2_7_dist-packages_flask_app.html'
p2416
sg10
S'/usr/local/lib/python2.7/dist-packages/flask/app'
p2417
sg12
g13
(g14
g15
NtRp2418
(dp2419
g18
I1
sg19
I0
sg20
I528
sg21
I0
sg22
I0
sg23
I236
sg24
I0
sbssg25
S'7|\x15mz\xbd\x7f(.\x8f\\\xc4\x1b\x93\xa0\xac'
p2420
ssS'_usr_local_lib_python2_7_dist-packages_riak_mapreduce'
p2421
(dp2422
g6
(dp2423
g8
S'_usr_local_lib_python2_7_dist-packages_riak_mapreduce.html'
p2424
sg10
S'/usr/local/lib/python2.7/dist-packages/riak/mapreduce'
p2425
sg12
g13
(g14
g15
NtRp2426
(dp2427
g18
I1
sg19
I0
sg20
I251
sg21
I0
sg22
I0
sg23
I194
sg24
I0
sbssg25
S'\xd9\xb9\xa4\xd9\xe4gB%`\xeea~\xfe\x9e\x88;'
p2428
ssS'_usr_local_lib_python2_7_dist-packages_riak_datatypes_errors'
p2429
(dp2430
g6
(dp2431
g8
S'_usr_local_lib_python2_7_dist-packages_riak_datatypes_errors.html'
p2432
sg10
S'/usr/local/lib/python2.7/dist-packages/riak/datatypes/errors'
p2433
sg12
g13
(g14
g15
NtRp2434
(dp2435
g18
I1
sg19
I0
sg20
I5
sg21
I0
sg22
I0
sg23
I1
sg24
I0
sbssg25
S'\xb5\x9f\xb6\xa7\x16A\xa5\x89\xa4\xc1V\xbel\xeek\x12'
p2436
ssS'_usr_local_lib_python2_7_dist-packages_riak_content'
p2437
(dp2438
g6
(dp2439
g8
S'_usr_local_lib_python2_7_dist-packages_riak_content.html'
p2440
sg10
S'/usr/local/lib/python2.7/dist-packages/riak/content'
p2441
sg12
g13
(g14
g15
NtRp2442
(dp2443
g18
I1
sg19
I0
sg20
I72
sg21
I0
sg22
I0
sg23
I55
sg24
I0
sbssg25
S'\x07\xa2T\xb4\x9aM5\xdb7\x0e>\xb2\x1d\x81\xf8\xd2'
p2444
ssS'_usr_local_lib_python2_7_dist-packages_urllib3_connection'
p2445
(dp2446
g6
(dp2447
g8
S'_usr_local_lib_python2_7_dist-packages_urllib3_connection.html'
p2448
sg10
S'/usr/local/lib/python2.7/dist-packages/urllib3/connection'
p2449
sg12
g13
(g14
g15
NtRp2450
(dp2451
g18
I1
sg19
I0
sg20
I110
sg21
I0
sg22
I0
sg23
I61
sg24
I0
sbssg25
S'\xa3\x8c.\xbai\x7f\rF\xc2\x9e\x119\x07\x9aF\x95'
p2452
ssS'_usr_local_lib_python2_7_dist-packages_jinja2_parser'
p2453
(dp2454
g6
(dp2455
g8
S'_usr_local_lib_python2_7_dist-packages_jinja2_parser.html'
p2456
sg10
S'/usr/local/lib/python2.7/dist-packages/jinja2/parser'
p2457
sg12
g13
(g14
g15
NtRp2458
(dp2459
g18
I1
sg19
I0
sg20
I646
sg21
I0
sg22
I0
sg23
I586
sg24
I0
sbssg25
S'ph\r=(e\x9eI\xef\x90\xfe\x9c\xb7\xa9^Y'
p2460
ssS'_usr_local_lib_python2_7_dist-packages_urllib3_util___init__'
p2461
(dp2462
g6
(dp2463
g8
S'_usr_local_lib_python2_7_dist-packages_urllib3_util___init__.html'
p2464
sg10
S'/usr/local/lib/python2.7/dist-packages/urllib3/util/__init__'
p2465
sg12
g13
(g14
g15
NtRp2466
(dp2467
g18
I1
sg19
I0
sg20
I7
sg21
I0
sg22
I0
sg23
I0
sg24
I0
sbssg25
S'\x92!\xfd\x00\xa5S\xbf\x93\x83\xf3\x195\xa6+\xa1r'
p2468
ssS'_usr_local_lib_python2_7_dist-packages_riak_transports_security'
p2469
(dp2470
g6
(dp2471
g8
S'_usr_local_lib_python2_7_dist-packages_riak_transports_security.html'
p2472
sg10
S'/usr/local/lib/python2.7/dist-packages/riak/transports/security'
p2473
sg12
g13
(g14
g15
NtRp2474
(dp2475
g18
I1
sg19
I0
sg20
I209
sg21
I0
sg22
I0
sg23
I188
sg24
I0
sbssg25
S'\xe5\x17\xf22\x8e\xdd\x91,*\xc4\xac\x1b\x0e\xfb\x89\xf7'
p2476
ssS'_usr_local_lib_python2_7_dist-packages_google_protobuf_descriptor_pb2'
p2477
(dp2478
g6
(dp2479
g8
S'_usr_local_lib_python2_7_dist-packages_google_protobuf_descriptor_pb2.html'
p2480
sg10
S'/usr/local/lib/python2.7/dist-packages/google/protobuf/descriptor_pb2'
p2481
sg12
g13
(g14
g15
NtRp2482
(dp2483
g18
I1
sg19
I0
sg20
I145
sg21
I0
sg22
I0
sg23
I0
sg24
I0
sbssg25
S'dPX\xfe\xbemt\x9b\x07\x01\x02\xe2\xf2\x8b{\x8a'
p2484
ssS'_usr_local_lib_python2_7_dist-packages_flask_config'
p2485
(dp2486
g6
(dp2487
g8
S'_usr_local_lib_python2_7_dist-packages_flask_config.html'
p2488
sg10
S'/usr/local/lib/python2.7/dist-packages/flask/config'
p2489
sg12
g13
(g14
g15
NtRp2490
(dp2491
g18
I1
sg19
I0
sg20
I52
sg21
I0
sg22
I0
sg23
I22
sg24
I0
sbssg25
S'\xa5\xa1a\xff\xef\xa9bZ\x11\x8d;\xd2:\xf9?F'
p2492
ssS'_usr_local_lib_python2_7_dist-packages_jinja2__compat'
p2493
(dp2494
g6
(dp2495
g8
S'_usr_local_lib_python2_7_dist-packages_jinja2__compat.html'
p2496
sg10
S'/usr/local/lib/python2.7/dist-packages/jinja2/_compat'
p2497
sg12
g13
(g14
g15
NtRp2498
(dp2499
g18
I1
sg19
I0
sg20
I98
sg21
I0
sg22
I0
sg23
I37
sg24
I0
sbssg25
S'\x07\x8aA\xcd\xc3\xabF7\xc0\xbbI\xd9\xd1\xbd\xff\x16'
p2500
ssS'_usr_local_lib_python2_7_dist-packages_cryptography_hazmat_bindings_openssl_ecdsa'
p2501
(dp2502
g6
(dp2503
g8
S'_usr_local_lib_python2_7_dist-packages_cryptography_hazmat_bindings_openssl_ecdsa.html'
p2504
sg10
S'/usr/local/lib/python2.7/dist-packages/cryptography/hazmat/bindings/openssl/ecdsa'
p2505
sg12
g13
(g14
g15
NtRp2506
(dp2507
g18
I1
sg19
I0
sg20
I7
sg21
I0
sg22
I0
sg23
I0
sg24
I0
sbssg25
S'Z\xc9\x15\xb2\xa8\x89\x99m\xf9\x04\xdf\x9f\x01\xe7\xda\xe6'
p2508
ssS'_usr_local_lib_python2_7_dist-packages_riak_resolver'
p2509
(dp2510
g6
(dp2511
g8
S'_usr_local_lib_python2_7_dist-packages_riak_resolver.html'
p2512
sg10
S'/usr/local/lib/python2.7/dist-packages/riak/resolver'
p2513
sg12
g13
(g14
g15
NtRp2514
(dp2515
g18
I1
sg19
I0
sg20
I5
sg21
I0
sg22
I0
sg23
I3
sg24
I0
sbssg25
S'\xda|\xcf\xe9g\x91A\xf1\xb5\xdcK\xbe.\x9f!z'
p2516
ssS'data_api___init__'
p2517
(dp2518
g6
(dp2519
g8
S'data_api___init__.html'
p2520
sg10
S'data_api/__init__'
p2521
sg12
g13
(g14
g15
NtRp2522
(dp2523
g18
I1
sg19
I0
sg20
I18
sg21
I0
sg22
I0
sg23
I3
sg24
I0
sbssg25
S'\x85\x80\x1b\x81\xdf\xa0\xb6g\xacL$\xea\x9et\x9cx'
p2524
sssS'version'
p2525
S'3.7.1'
p2526
sS'settings'
p2527
S'-<\x88\x14z\x82X~\x16N0M\x87xGD'
p2528
sS'format'
p2529
I1
s.